
/home/rahulmahdev/devel/optee/build/../quiz_test/out/ta/ta_quiz/7aaaf200-2450-11e4-abe20002a5d5c51b.elf:     file format elf32-littlearm
/home/rahulmahdev/devel/optee/build/../quiz_test/out/ta/ta_quiz/7aaaf200-2450-11e4-abe20002a5d5c51b.elf
architecture: arm, flags 0x00000150:
HAS_SYMS, DYNAMIC, D_PAGED
start address 0x00000024

Program Header:
    LOAD off    0x00010000 vaddr 0x00000000 paddr 0x00000000 align 2**16
         filesz 0x0000cb44 memsz 0x0000cb44 flags rwx
    LOAD off    0x0001d000 vaddr 0x0000d000 paddr 0x0000d000 align 2**16
         filesz 0x00000098 memsz 0x0000abc5 flags rw-
    LOAD off    0x00028000 vaddr 0x00018000 paddr 0x00018000 align 2**16
         filesz 0x000011d8 memsz 0x000011d8 flags rw-
 DYNAMIC off    0x00028000 vaddr 0x00018000 paddr 0x00018000 align 2**2
         filesz 0x00000078 memsz 0x00000078 flags rw-

Dynamic Section:
  HASH                 0x00018e78
  STRTAB               0x000187c8
  SYMTAB               0x00018078
  STRSZ                0x000006b0
  SYMENT               0x00000010
  DEBUG                0x00000000
  REL                  0x0000c704
  RELSZ                0x00000440
  RELENT               0x00000008
  RELCOUNT             0x0000001a
private flags = 5000202: [Version5 EABI] [soft-float ABI] [has entry point]

Sections:
Idx Name          Size      VMA       LMA       File off  Algn
  0 .ta_head      00000024  00000000  00000000  00010000  2**2
                  CONTENTS, ALLOC, LOAD, DATA
  1 .text         0000aec4  00000024  00000024  00010024  2**2
                  CONTENTS, ALLOC, LOAD, READONLY, CODE
  2 .rodata       00001657  0000aee8  0000aee8  0001aee8  2**2
                  CONTENTS, ALLOC, LOAD, READONLY, DATA
  3 .got          000001c4  0000c540  0000c540  0001c540  2**2
                  CONTENTS, ALLOC, LOAD, DATA
  4 .dynsym       00000750  00018078  00018078  00028078  2**2
                  CONTENTS, ALLOC, LOAD, READONLY, DATA
  5 .rel.got      00000370  0000c7d4  0000c7d4  0001c7d4  2**2
                  CONTENTS, ALLOC, LOAD, READONLY, DATA
  6 .data         00000098  0000d000  0000d000  0001d000  2**2
                  CONTENTS, ALLOC, LOAD, DATA
  7 .bss          0000ab2d  0000d098  0000d098  0001d098  2**2
                  ALLOC
  8 .dynamic      00000078  00018000  00018000  00028000  2**2
                  CONTENTS, ALLOC, LOAD, DATA
  9 .dynstr       000006b0  000187c8  000187c8  000287c8  2**0
                  CONTENTS, ALLOC, LOAD, READONLY, DATA
 10 .hash         00000360  00018e78  00018e78  00028e78  2**2
                  CONTENTS, ALLOC, LOAD, READONLY, DATA
 11 .debug_info   000083a8  00000000  00000000  000291d8  2**0
                  CONTENTS, READONLY, DEBUGGING
 12 .debug_abbrev 0000291a  00000000  00000000  00031580  2**0
                  CONTENTS, READONLY, DEBUGGING
 13 .debug_loc    00000250  00000000  00000000  00033e9a  2**0
                  CONTENTS, READONLY, DEBUGGING
 14 .debug_aranges 00000b50  00000000  00000000  000340f0  2**3
                  CONTENTS, READONLY, DEBUGGING
 15 .debug_ranges 000008e8  00000000  00000000  00034c40  2**0
                  CONTENTS, READONLY, DEBUGGING
 16 .debug_line   000061b3  00000000  00000000  00035528  2**0
                  CONTENTS, READONLY, DEBUGGING
 17 .debug_str    0000e67b  00000000  00000000  0003b6db  2**0
                  CONTENTS, READONLY, DEBUGGING
 18 .comment      00000063  00000000  00000000  00049d56  2**0
                  CONTENTS, READONLY
 19 .ARM.attributes 0000003c  00000000  00000000  00049db9  2**0
                  CONTENTS, READONLY
 20 .debug_frame  00002954  00000000  00000000  00049df8  2**2
                  CONTENTS, READONLY, DEBUGGING
 21 .rel.dyn      000000d0  0000c704  0000c704  0001c704  2**2
                  CONTENTS, ALLOC, LOAD, READONLY, DATA
 22 .debug_macro  00003937  00000000  00000000  0004c74c  2**0
                  CONTENTS, READONLY, DEBUGGING
SYMBOL TABLE:
00000000 l    d  .ta_head	00000000 .ta_head
00000024 l    d  .text	00000000 .text
0000aee8 l    d  .rodata	00000000 .rodata
0000c540 l    d  .got	00000000 .got
0000c7d4 l    d  .rel.got	00000000 .rel.got
0000d000 l    d  .data	00000000 .data
0000d098 l    d  .bss	00000000 .bss
00018000 l    d  .dynamic	00000000 .dynamic
00018078 l    d  .dynsym	00000000 .dynsym
000187c8 l    d  .dynstr	00000000 .dynstr
00018e78 l    d  .hash	00000000 .hash
00000000 l    d  .debug_info	00000000 .debug_info
00000000 l    d  .debug_abbrev	00000000 .debug_abbrev
00000000 l    d  .debug_loc	00000000 .debug_loc
00000000 l    d  .debug_aranges	00000000 .debug_aranges
00000000 l    d  .debug_ranges	00000000 .debug_ranges
00000000 l    d  .debug_line	00000000 .debug_line
00000000 l    d  .debug_str	00000000 .debug_str
00000000 l    d  .comment	00000000 .comment
00000000 l    d  .ARM.attributes	00000000 .ARM.attributes
00000000 l    d  .debug_frame	00000000 .debug_frame
0000c704 l    d  .rel.dyn	00000000 .rel.dyn
00000000 l    d  .debug_macro	00000000 .debug_macro
00000000 l    df *ABS*	00000000 user_ta_header.c
0000c53c l     O .rodata	00000001 __compound_literal.0
0000c53d l     O .rodata	00000001 __compound_literal.1
0000c53e l     O .rodata	00000001 __compound_literal.2
0000afbc l     O .rodata	00000004 __compound_literal.3
0000afc0 l     O .rodata	00000004 __compound_literal.4
0000afc4 l     O .rodata	00000004 __compound_literal.5
00000000 l    df *ABS*	00000000 quiz_ta.c
00000048 l     F .text	00000064 set_params
0000af6c l     O .rodata	00000019 __func__.4836
0000af88 l     O .rodata	0000001a __func__.4840
00000170 l     F .text	000000d8 start_quiz
0000afa4 l     O .rodata	0000000b __func__.4846
00000000 l    df *ABS*	00000000 user_ta_entry.c
0000d070 l     O .data	00000008 ta_sessions
000150ac l     O .bss	00000004 ta_ref_count
00017bc4 l     O .bss	00000001 context_init
00000298 l     F .text	00000070 ta_header_save_params
00000308 l     F .text	00000044 ta_header_get_session
0000034c l     F .text	0000014c ta_header_add_session
00000498 l     F .text	000000b8 ta_header_remove_session
00000000 l    df *ABS*	00000000 utee_syscalls_asm.o
00000000 l    df *ABS*	00000000 tee_api_arith.c
000150d4 l     O .bss	00001ad0 mempool_u32
0000d078 l     O .data	00000004 mempool
00000cc8 l     F .text	00000040 TEE_BigInt_Panic
00000000 l    df *ABS*	00000000 tee_api.c
0000b114 l     O .rodata	00000004 DEFAULT_TEE_MALLOC_HINT
00016ba4 l     O .bss	00000004 tee_api_instance_data
00000000 l    df *ABS*	00000000 utee_misc.c
00000000 l    df *ABS*	00000000 tee_user_mem.c
0000b118 l     O .rodata	00000004 DEFAULT_TEE_MALLOC_HINT
0000d07c l     O .data	00000004 ARTIST
0000b11c l     O .rodata	00000004 CANARY_LINE_SIZE
00002160 l     F .text	0000001e buf_addr
00002180 l     F .text	00000028 buf_size
000021a8 l     F .text	0000001e elem_addr
000021c8 l     F .text	0000004c is_buffer_valid
00002214 l     F .text	0000007c print_buf
00016ba8 l     O .bss	00000004 heap_level
00016bac l     O .bss	00000008 global_stats
00002290 l     F .text	00000060 heap_inc
000022f0 l     F .text	00000064 heap_dec
00002354 l     F .text	00000074 check_elem_end
0000b210 l     O .rodata	0000000f __func__.4931
000023c8 l     F .text	00000104 check_elem
0000b220 l     O .rodata	0000000b __func__.4936
000024cc l     F .text	00000084 is_mem_coherent
0000b22c l     O .rodata	00000013 __func__.4955
0000b240 l     O .rodata	00000012 __func__.4972
0000b254 l     O .rodata	00000018 __func__.4980
000029bc l     F .text	00000088 tee_user_mem_status
0000b26c l     O .rodata	00000014 __func__.4985
00000000 l    df *ABS*	00000000 trace_ext.c
0000b288 l     O .rodata	0000000a prefix.4674
0000b294 l     O .rodata	00000011 failed.4675
0000b2a8 l     O .rodata	00000005 trunc.4676
00000000 l    df *ABS*	00000000 assert.c
0000b2d0 l     O .rodata	0000000c __func__.5139
00000000 l    df *ABS*	00000000 bget_malloc.c
00002cc0 l     F .text	0000001a mdbg_set_mode
0000d088 l     O .data	00000010 freelist
00016bb4 l     O .bss	00000004 malloc_pool
00016bb8 l     O .bss	00000004 malloc_pool_len
000034a0 l     F .text	0000000e raw_malloc_save_max_alloced_size
00003540 l     F .text	0000000e raw_malloc_validate_pools
00003550 l     F .text	00000030 bpool_foreach_iterator_init
00003580 l     F .text	000000f4 bpool_foreach_pool
00003674 l     F .text	00000090 bpool_foreach
00003704 l     F .text	00000068 raw_malloc
0000376c l     F .text	00000030 raw_free
0000379c l     F .text	00000078 raw_calloc
00003814 l     F .text	0000006c raw_realloc
00003880 l     F .text	00000178 create_free_block
000039f8 l     F .text	00000130 brel_before
00003b28 l     F .text	000001f4 brel_after
00003d1c l     F .text	00000184 raw_memalign
00003ea0 l     F .text	00000078 bget_buf_size
00004018 l     F .text	0000002c get_payload_start_size
00000000 l    df *ABS*	00000000 snprintf.c
0000b6d0 l     O .rodata	00000011 hexdigits
0000b6e4 l     O .rodata	00000011 HEXDIGITS
0000442c l     F .text	00000d70 kprintf
00000000 l    df *ABS*	00000000 memchr.c
00000000 l    df *ABS*	00000000 memcmp.c
00000000 l    df *ABS*	00000000 memcpy.c
00000000 l    df *ABS*	00000000 memmove.c
00000000 l    df *ABS*	00000000 memset.c
00000000 l    df *ABS*	00000000 strlen.c
00000000 l    df *ABS*	00000000 arm32_aeabi_ldivmod_a32.o
00000000 l    df *ABS*	00000000 arm32_aeabi_ldivmod.c
00005774 l     F .text	000000f0 division_lqr
00005864 l     F .text	00000070 ul_div_qr
00000000 l    df *ABS*	00000000 strlcpy.c
00000000 l    df *ABS*	00000000 trace.c
00005b78 l     F .text	00000058 trace_level_to_string
0000b748 l     O .rodata	00000014 lvl_strs.4220
00000000 l    df *ABS*	00000000 mpa_misc.c
00000000 l    df *ABS*	00000000 mpa_montgomery.c
00000000 l    df *ABS*	00000000 mpa_primetest.c
0000c3c4 l     O .rodata	00000008 const_small_prime_factors
0000c47c l     O .rodata	00000008 const_miller_rabin_proof_limit
0000c48c l     O .rodata	00000008 const_two
00006698 l     F .text	000000c8 is_small_prime
00006760 l     F .text	0000008c has_small_factors
000067ec l     F .text	00000338 primality_test_miller_rabin
00006660 l     F .text	00000038 check_table
0000c498 l     O .rodata	0000001c proof_a.4600
00000000 l    df *ABS*	00000000 mpa_conv.c
00000000 l    df *ABS*	00000000 mpa_div.c
00006c6c l     F .text	000000d8 __mpa_soft_div
00006da4 l     F .text	000006a0 __mpa_div_q_r_internal
00000000 l    df *ABS*	00000000 mpa_gcd.c
00007828 l     F .text	000000f2 __mpa_divby2
0000791c l     F .text	00000390 __mpa_egcd
00007cac l     F .text	000001cc __mpa_gcd
00000000 l    df *ABS*	00000000 mpa_mem_static.c
00000000 l    df *ABS*	00000000 mpa_mul.c
00000000 l    df *ABS*	00000000 mpa_random.c
00016bbc l     O .bss	00000004 get_rng_array
00008894 l     F .text	00000034 get_random_byte
00000000 l    df *ABS*	00000000 mpa_shift.c
00000000 l    df *ABS*	00000000 mpa_addsub.c
00000000 l    df *ABS*	00000000 mpa_cmp.c
00000000 l    df *ABS*	00000000 mpa_expmod.c
00000000 l    df *ABS*	00000000 mpa_init.c
00000000 l    df *ABS*	00000000 mpa_io.c
0000a110 l     F .text	00000042 __mpa_isspace
0000a154 l     F .text	0000008c __mpa_is_char_in_base
0000a1e0 l     F .text	00000058 __mpa_digit_value
0000a238 l     F .text	00000022 __mpa_digitstr_to_binary_wsize_base_16
0000a25c l     F .text	00000050 __mpa_nibble_to_char
0000a2ac l     F .text	0000006c __mpa_word_to_hexstr
0000a318 l     F .text	00000134 __mpa_mpanum_to_hexstr
0000a44c l     F .text	00000050 __mpa_count_leading_zero_bits
0000a49c l     F .text	0000006c __mpa_size_in_base_255
00016bc0 l     O .bss	00001002 buf.4637
0000a91c l     F .text	00000066 set_word
0000aa84 l     F .text	00000042 get_word
00000000 l    df *ABS*	00000000 mpa_modulus.c
00000000 l    df *ABS*	00000000 
00018000 l     O *ABS*	00000000 _DYNAMIC
0000c540 l     O *ABS*	00000000 _GLOBAL_OFFSET_TABLE_
00000c88 g       .text	00000000 utee_se_channel_transmit
0000a00c g     F .text	0000004a mpa_init_static
00005e84 g     F .text	00000060 mpa_copy
00001884 g     F .text	00000064 TEE_BigIntConvertToFMM
00001658 g     F .text	00000034 TEE_BigIntSquareMod
000010a8 g     F .text	00000044 TEE_BigIntShiftRight
00006b70 g     F .text	00000096 mpa_get_S32
00005f1c g     F .text	0000007e mpa_highest_bit_index
00000a7c g       .text	00000000 utee_storage_obj_create
00005974 g     F .text	00000114 __l_divmod
00000c4c g       .text	00000000 utee_se_session_close
0000d0a4 g     O .bss	00000008 questions
000006d4 g       .text	00000000 utee_return
000034b0 g     F .text	0000000e malloc_reset_max_allocated
00000bac g       .text	00000000 utee_se_service_get_readers
00001f50 g     F .text	00000030 TEE_Realloc
00007444 g     F .text	0000015c __mpa_div_q_r_internal_word
000026d0 g     F .text	000000e8 tee_user_mem_realloc
000034e8 g     F .text	00000058 malloc_get_heap_size
0000969c g     F .text	00000250 mpa_sub
00002ae8 g     F .text	00000120 printf
000027b8 g     F .text	00000150 tee_user_mem_free
000006e8 g       .text	00000000 utee_log
0000b788 g     O .rodata	00000004 NR_STORED_PRIMES
00001ab8 g     F .text	00000090 TEE_InvokeTACommand
00006008 g     F .text	00000032 mpa_can_hold
000084a4 g     F .text	000000cc __mpa_abs_mul_word
00006584 g     F .text	00000074 mpa_montgomery_mul
0000603c g     F .text	0000002a mpa_parity
0000545c g     F .text	0000013e memmove
000090c0 g     F .text	00000062 __mpa_full_adder_ackum
00004368 g     F .text	00000044 snprintf
00001074 g     F .text	00000034 TEE_BigIntCmpS32
0000115c g     F .text	00000050 TEE_BigIntAdd
0000afb8 g     O .rodata	00000004 ta_heap_size
0000b784 g     O .rodata	00000004 MAX_TABULATED_PRIME
0000207c g     F .text	0000002c utee_malloc
00000834 g       .text	00000000 utee_cryp_state_alloc
00000a04 g       .text	00000000 utee_authenc_enc_final
0000841c g     F .text	00000086 __mpa_mul_add_word_cum
000011fc g     F .text	00000034 TEE_BigIntNeg
00004044 g     F .text	00000070 malloc_init
00007724 g     F .text	00000104 mpa_div
0000b778 g     O .rodata	00000008 const_one
000042bc g     F .text	000000ac malloc_buffer_overlaps_heap
00009d38 g     F .text	0000002c __mpa_abs_less_than
000014a8 g     F .text	000000b4 TEE_BigIntSubMod
000088c8 g     F .text	00000158 mpa_get_random
00002130 g     F .text	00000030 get_rng_array
00005bd0 g     F .text	000001ec trace_printf
00000b84 g       .text	00000000 utee_se_service_open
00005368 g     F .text	000000f2 memcpy
00000860 g       .text	00000000 utee_cryp_state_free
00005e38 g     F .text	0000004c mpa_wipe
000018e8 g     F .text	000000b4 TEE_BigIntConvertFromFMM
00001a00 g     F .text	00000020 TEE_Panic
00000c74 g       .text	00000000 utee_se_channel_get_select_resp
0000575c g     F .text	00000018 __aeabi_uldivmod
00002c08 g     F .text	0000003c puts
0000199c g     F .text	00000064 TEE_BigIntComputeFMM
00006c08 g     F .text	00000030 mpa_set_word
00008bac g     F .text	00000248 mpa_shift_left
000008e0 g       .text	00000000 utee_cipher_final
0000869c g     F .text	000000f8 mpa_mul
00001ee0 g     F .text	00000040 TEE_GetREETime
0000d004 g     O .data	0000006c ta_props
00003f18 g     F .text	0000002c malloc
00000948 g       .text	00000000 utee_cryp_obj_close
00000be8 g       .text	00000000 utee_se_reader_open_session
000043ac g     F .text	00000080 vsnprintf
0000d000 g     O .data	00000004 trace_level
00002068 g     F .text	00000014 utee_get_ta_exec_id
0000103c g     F .text	00000038 TEE_BigIntCmp
000020a8 g     F .text	00000030 utee_realloc
0000b0b0 g     O .rodata	00000004 ta_num_props
00002fa8 g     F .text	000000c4 bgetr
000009ec g       .text	00000000 utee_authenc_update_payload
00000f08 g     F .text	0000008c TEE_BigIntConvertToOctetString
00000cb4 g       .text	00000000 utee_cache_operation
000009c0 g       .text	00000000 utee_authenc_init
000010ec g     F .text	0000003c TEE_BigIntGetBit
0000afb0 g     O .rodata	00000008 trace_ext_prefix
00009124 g     F .text	00000138 __mpa_abs_add
00002eec g     F .text	000000bc bgetz
00001c84 g     F .text	0000001c TEE_GetInstanceData
00001da0 g     F .text	0000004c TEE_Wait
0000073c g       .text	00000000 utee_nocall
00000b34 g       .text	00000000 utee_storage_obj_write
00008324 g     F .text	0000007e mpa_free_static_temp_var
000034d4 g     F .text	00000014 malloc_get_allocated
000065f8 g     F .text	00000068 mpa_is_prob_prime
00000ca0 g       .text	00000000 utee_se_channel_close
00008794 g     F .text	000000dc mpa_mul_word
00001fe8 g     F .text	00000040 TEE_CacheFlush
00000038 g     F .text	0000000e TA_DestroyEntryPoint
0000d0a0 g     O .bss	00000004 max_qs
00002c44 g     F .text	0000005c _assert_log
00000e54 g     F .text	0000002e TEE_BigIntFMMContextSizeInU32
0000000c g       *ABS*	00000000 linker_RW_sections_size
000075a0 g     F .text	00000184 __mpa_div_q_r
00000d08 g     F .text	00000050 _TEE_MathAPI_Init
00000b0c g       .text	00000000 utee_storage_next_enum
0000d0ac g     O .bss	00008000 ta_heap
0000168c g     F .text	00000090 TEE_BigIntInvMod
00000124 g     F .text	0000004c TA_CloseSessionEntryPoint
0000084c g       .text	00000000 utee_cryp_state_copy
00000248 g     F .text	0000003c TA_InvokeCommandEntryPoint
0000a984 g     F .text	00000100 mpa_set_oct_str
00000c38 g       .text	00000000 utee_se_session_open_channel
00008a20 g     F .text	000000cc __mpa_shift_words_left
00000934 g       .text	00000000 utee_cryp_obj_alloc
00000820 g       .text	00000000 utee_set_ta_time
00000920 g       .text	00000000 utee_cryp_obj_get_attr
000061b4 g     F .text	00000118 __mpa_montgomery_sub_ack
00003f64 g     F .text	0000003c calloc
00001f20 g     F .text	00000030 TEE_Malloc
000007e4 g       .text	00000000 utee_mask_cancellation
0000095c g       .text	00000000 utee_cryp_obj_reset
00001c04 g     F .text	0000005c TEE_CheckMemoryAccessRights
000058d4 g     F .text	000000a0 __ul_divmod
0000d098 g     O .bss	00000004 score
000098ec g     F .text	00000038 mpa_neg
0000b78c g     O .rodata	00000c38 PRIME_TABLE
000000ac g     F .text	00000078 TA_OpenSessionEntryPoint
00007e78 g     F .text	00000118 mpa_gcd
00005ee4 g     F .text	00000038 mpa_abs
00000af8 g       .text	00000000 utee_storage_start_enum
0000a51c g     F .text	00000348 mpa_set_str
00000aa8 g       .text	00000000 utee_storage_obj_rename
000150b0 g     O .bss	00000004 ta_param_types
00001820 g     F .text	00000064 TEE_BigIntIsProbablePrime
000082f8 g     F .text	0000002c mpa_alloc_static_temp_var
00008870 g     F .text	00000024 mpa_set_random_generator
00000750 g       .text	00000000 utee_get_property
00000d58 g     F .text	0000002c TEE_BigIntInit
00001ca0 g     F .text	00000040 TEE_MemMove
00000e84 g     F .text	00000084 TEE_BigIntConvertFromOctetString
0000519c g     F .text	00000112 memchr
00001b84 g     F .text	00000040 TEE_UnmaskCancellation
0000ad44 g     F .text	00000078 mpa_mul_mod
00000a94 g       .text	00000000 utee_storage_obj_del
00000b5c g       .text	00000000 utee_storage_obj_seek
000005f0 g     F .text	00000064 ta_entry_close_session
0000642c g     F .text	00000158 mpa_compute_fmm_context
00000888 g       .text	00000000 utee_hash_update
0000134c g     F .text	000000a8 TEE_BigIntMod
00000c60 g       .text	00000000 utee_se_channel_select_next
0000077c g       .text	00000000 utee_close_ta_session
000012c8 g     F .text	00000084 TEE_BigIntDiv
00005a88 g     F .text	00000082 strlcpy
000008c8 g       .text	00000000 utee_cipher_update
00000c24 g       .text	00000000 utee_se_session_get_atr
00003fa0 g     F .text	0000003c realloc
0000925c g     F .text	0000010c __mpa_abs_add_ackum
00000a4c g       .text	00000000 utee_asymm_verify
00001230 g     F .text	00000050 TEE_BigIntMul
00006c38 g     F .text	00000032 mpa_get_word
00001d20 g     F .text	00000040 TEE_MemFill
000052b0 g     F .text	000000b6 memcmp
000040b4 g     F .text	00000168 malloc_add_pool
00005b54 g     F .text	00000024 trace_get_level
000009ac g       .text	00000000 utee_cryp_random_number_generate
00000e2c g     F .text	00000026 TEE_BigIntFMMSizeInU32
00000d84 g     F .text	0000003e TEE_BigIntInitFMM
00000a34 g       .text	00000000 utee_asymm_operate
0000171c g     F .text	000000a4 TEE_BigIntRelativePrime
0000000c g       *ABS*	00000000 linker_RO_sections_size
00003360 g     F .text	00000140 bpool
00006b24 g     F .text	0000004a mpa_set_S32
0000a058 g     F .text	000000b8 mpa_init_static_fmm_context
00001b48 g     F .text	0000003c TEE_GetCancellationFlag
00000b98 g       .text	00000000 utee_se_service_close
00002550 g     F .text	00000180 tee_user_mem_alloc
0000d080 g     O .data	00000008 user_mem_head
00001e84 g     F .text	0000005c TEE_SetTAPersistentTime
00009924 g     F .text	00000170 mpa_add_word
00000bc0 g       .text	00000000 utee_se_reader_get_prop
0000559c g     F .text	0000011c memset
00001dec g     F .text	00000098 TEE_GetTAPersistentTime
00005dbc g     F .text	0000001c dhex_dump
00001bc4 g     F .text	00000040 TEE_MaskCancellation
00009058 g     F .text	00000066 __mpa_full_sub
00000b20 g       .text	00000000 utee_storage_obj_read
000020d8 g     F .text	00000030 utee_calloc
00000970 g       .text	00000000 utee_cryp_obj_populate
00009d64 g     F .text	00000090 mpa_cmp
0000adbc g     F .text	0000012c mpa_inv_mod
00009a94 g     F .text	00000174 mpa_sub_word
000083a4 g     F .text	00000078 __mpa_mul_add_word
00009478 g     F .text	00000224 mpa_add
00009ea0 g     F .text	0000016c mpa_exp_mod
00008aec g     F .text	000000c0 __mpa_shift_words_right
00005b0c g     F .text	00000048 trace_set_level
00000c10 g       .text	00000000 utee_se_session_is_closed
000008f8 g       .text	00000000 utee_cryp_obj_get_info
00000abc g       .text	00000000 utee_storage_alloc_enum
00000ae4 g       .text	00000000 utee_storage_reset_enum
00000b48 g       .text	00000000 utee_storage_obj_trunc
0000ac10 g     F .text	00000044 mpa_mod
00009d08 g     F .text	00000030 __mpa_abs_greater_than
00000fc4 g     F .text	00000078 TEE_BigIntConvertToS32
000011ac g     F .text	00000050 TEE_BigIntSub
000007a8 g       .text	00000000 utee_get_cancellation_flag
00000874 g       .text	00000000 utee_hash_init
00000284 g     F .text	00000014 tahead_get_trace_level
0000b768 g     O .rodata	00000008 Const_1_LShift_Base
00003fdc g     F .text	0000003c memalign
00000f94 g     F .text	00000030 TEE_BigIntConvertFromS32
0000accc g     F .text	00000078 mpa_sub_mod
0000090c g       .text	00000000 utee_cryp_obj_restrict_usage
0000421c g     F .text	000000a0 malloc_buffer_is_within_alloced
00000984 g       .text	00000000 utee_cryp_obj_copy
00000724 g       .text	00000000 utee_dummy_7args
00008df4 g     F .text	00000200 mpa_shift_right
00000dc4 g     F .text	00000068 TEE_BigIntInitFMMContext
00000998 g       .text	00000000 utee_cryp_derive_key
000062cc g     F .text	00000160 __mpa_montgomery_mul
0000aac8 g     F .text	00000148 mpa_get_oct_str
00009df4 g     F .text	000000aa mpa_cmp_short
00000a1c g       .text	00000000 utee_authenc_dec_final
00009c08 g     F .text	00000100 __mpa_abs_cmp
00001280 g     F .text	00000048 TEE_BigIntSquare
00000024 g     F .text	00000014 TA_CreateEntryPoint
00001128 g     F .text	00000034 TEE_BigIntGetBitCount
0000155c g     F .text	000000fc TEE_BigIntMulMod
000150b4 g     O .bss	00000020 ta_params
00008570 g     F .text	0000012c __mpa_abs_mul
00002cdc g     F .text	00000210 bget
00001f80 g     F .text	00000028 TEE_Free
00000bd4 g       .text	00000000 utee_se_reader_get_name
00002028 g     F .text	00000040 TEE_CacheInvalidate
000008b4 g       .text	00000000 utee_cipher_init
00002ca0 g     F .text	00000020 _assert_break
000013f4 g     F .text	000000b4 TEE_BigIntAddMod
00000ad0 g       .text	00000000 utee_storage_free_enum
000009d8 g       .text	00000000 utee_authenc_update_aad
00005f9c g     F .text	0000006a mpa_get_bit
000081ac g     F .text	00000032 mpa_init_scratch_mem
00000654 g     F .text	00000080 ta_entry_invoke_command
00001ce0 g     F .text	00000040 TEE_MemCompare
00001a20 g     F .text	00000058 TEE_OpenTASession
000006fc g       .text	00000000 utee_panic
00002a90 g     F .text	00000044 trace_ext_puts
00002a44 g     F .text	0000004c tee_user_mem_garbage
00002ad4 g     F .text	00000014 trace_ext_get_thread_id
00001fa8 g     F .text	00000040 TEE_CacheClean
00000764 g       .text	00000000 utee_open_ta_session
00006d44 g     F .text	00000060 __mpa_div_dword
00005dd8 g     F .text	00000060 __mpa_set_unused_digits_to_zero
0000b75c g     O .rodata	00000008 const_largest_deci_base
0000a508 g     F .text	00000014 mpa_get_str_size
00002928 g     F .text	00000094 tee_user_mem_check_heap
0000000c g       *ABS*	00000000 linker_res_funcs_ZI_sections_size
0000089c g       .text	00000000 utee_hash_final
000056b8 g     F .text	0000008a strlen
000017c0 g     F .text	00000060 TEE_BigIntComputeExtendedGcd
00007f90 g     F .text	0000021c mpa_extended_gcd
0000ac54 g     F .text	00000078 mpa_add_mod
0000000c g       *ABS*	00000000 linker_rel_dyn_GOT
00000a64 g       .text	00000000 utee_storage_obj_open
00000790 g       .text	00000000 utee_invoke_ta_command
0000a864 g     F .text	000000b8 mpa_get_str
000007f8 g       .text	00000000 utee_wait
00000710 g       .text	00000000 utee_dummy
00002108 g     F .text	00000028 utee_free
00002908 g     F .text	00000020 tee_user_mem_mark_heap
00001d60 g     F .text	00000040 TEE_GetSystemTime
00000000 g     O .ta_head	00000024 ta_head
0000306c g     F .text	000002f4 brel
000081e0 g     F .text	00000118 mpa_alloc_static_temp_var_size
0000080c g       .text	00000000 utee_get_time
00006080 g     F .text	00000132 __mpa_montgomery_mul_add
00001c60 g     F .text	00000024 TEE_SetInstanceData
000007d0 g       .text	00000000 utee_unmask_cancellation
00005744 g     F .text	00000000 __aeabi_ldivmod
000007bc g       .text	00000000 utee_check_access_rights
00000bfc g       .text	00000000 utee_se_reader_close_sessions
00000b70 g       .text	00000000 utee_cryp_obj_generate_key
00001a78 g     F .text	00000040 TEE_CloseTASession
00006068 g     F .text	00000018 mpa_constant_one
000034c0 g     F .text	00000014 malloc_get_max_allocated
0000d09c g     O .bss	00000004 q_no
00008ff4 g     F .text	00000062 __mpa_full_adder
00009368 g     F .text	00000110 __mpa_abs_sub
00000550 g     F .text	000000a0 ta_entry_open_session
00003f44 g     F .text	00000020 free



Disassembly of section .text:

00000024 <TA_CreateEntryPoint>:
TA_CreateEntryPoint():
/home/rahulmahdev/devel/optee/quiz_test/ta/ta_quiz/quiz_ta.c:12
      24:	f84d 7d04 	str.w	r7, [sp, #-4]!
      28:	af00      	add	r7, sp, #0
/home/rahulmahdev/devel/optee/quiz_test/ta/ta_quiz/quiz_ta.c:13
      2a:	f04f 0300 	mov.w	r3, #0
/home/rahulmahdev/devel/optee/quiz_test/ta/ta_quiz/quiz_ta.c:14
      2e:	4618      	mov	r0, r3
      30:	46bd      	mov	sp, r7
      32:	f85d 7b04 	ldr.w	r7, [sp], #4
      36:	4770      	bx	lr

00000038 <TA_DestroyEntryPoint>:
TA_DestroyEntryPoint():
/home/rahulmahdev/devel/optee/quiz_test/ta/ta_quiz/quiz_ta.c:21
      38:	f84d 7d04 	str.w	r7, [sp, #-4]!
      3c:	af00      	add	r7, sp, #0
/home/rahulmahdev/devel/optee/quiz_test/ta/ta_quiz/quiz_ta.c:22
      3e:	46bd      	mov	sp, r7
      40:	f85d 7b04 	ldr.w	r7, [sp], #4
      44:	4770      	bx	lr
      46:	bf00      	nop

00000048 <set_params>:
set_params():
/home/rahulmahdev/devel/optee/quiz_test/ta/ta_quiz/quiz_ta.c:33
      48:	f84d 7d04 	str.w	r7, [sp, #-4]!
      4c:	af00      	add	r7, sp, #0
/home/rahulmahdev/devel/optee/quiz_test/ta/ta_quiz/quiz_ta.c:34
      4e:	4b10      	ldr	r3, [pc, #64]	; (90 <set_params+0x48>)
      50:	447b      	add	r3, pc
      52:	461a      	mov	r2, r3
      54:	f04f 0300 	mov.w	r3, #0
      58:	6013      	str	r3, [r2, #0]
/home/rahulmahdev/devel/optee/quiz_test/ta/ta_quiz/quiz_ta.c:35
      5a:	4b0e      	ldr	r3, [pc, #56]	; (94 <set_params+0x4c>)
      5c:	447b      	add	r3, pc
      5e:	461a      	mov	r2, r3
      60:	f04f 0300 	mov.w	r3, #0
      64:	6013      	str	r3, [r2, #0]
/home/rahulmahdev/devel/optee/quiz_test/ta/ta_quiz/quiz_ta.c:36
      66:	4b0c      	ldr	r3, [pc, #48]	; (98 <set_params+0x50>)
      68:	447b      	add	r3, pc
      6a:	461a      	mov	r2, r3
      6c:	f04f 0302 	mov.w	r3, #2
      70:	6013      	str	r3, [r2, #0]
/home/rahulmahdev/devel/optee/quiz_test/ta/ta_quiz/quiz_ta.c:37
      72:	4b0a      	ldr	r3, [pc, #40]	; (9c <set_params+0x54>)
      74:	447b      	add	r3, pc
      76:	4a0a      	ldr	r2, [pc, #40]	; (a0 <set_params+0x58>)
      78:	447a      	add	r2, pc
      7a:	601a      	str	r2, [r3, #0]
/home/rahulmahdev/devel/optee/quiz_test/ta/ta_quiz/quiz_ta.c:38
      7c:	4b09      	ldr	r3, [pc, #36]	; (a4 <set_params+0x5c>)
      7e:	447b      	add	r3, pc
      80:	4a09      	ldr	r2, [pc, #36]	; (a8 <set_params+0x60>)
      82:	447a      	add	r2, pc
      84:	605a      	str	r2, [r3, #4]
/home/rahulmahdev/devel/optee/quiz_test/ta/ta_quiz/quiz_ta.c:39
      86:	46bd      	mov	sp, r7
      88:	f85d 7b04 	ldr.w	r7, [sp], #4
      8c:	4770      	bx	lr
      8e:	bf00      	nop
      90:	0000d044 	.word	0x0000d044
      94:	0000d03c 	.word	0x0000d03c
      98:	0000d034 	.word	0x0000d034
      9c:	0000d02c 	.word	0x0000d02c
      a0:	0000ae6c 	.word	0x0000ae6c
      a4:	0000d022 	.word	0x0000d022
      a8:	0000ae82 	.word	0x0000ae82

000000ac <TA_OpenSessionEntryPoint>:
TA_OpenSessionEntryPoint():
/home/rahulmahdev/devel/optee/quiz_test/ta/ta_quiz/quiz_ta.c:48
      ac:	e96d 4504 	strd	r4, r5, [sp, #-16]!
      b0:	e9cd 7e02 	strd	r7, lr, [sp, #8]
      b4:	b088      	sub	sp, #32
      b6:	af02      	add	r7, sp, #8
      b8:	60f8      	str	r0, [r7, #12]
      ba:	60b9      	str	r1, [r7, #8]
      bc:	607a      	str	r2, [r7, #4]
      be:	4d14      	ldr	r5, [pc, #80]	; (110 <TA_OpenSessionEntryPoint+0x64>)
      c0:	447d      	add	r5, pc
/home/rahulmahdev/devel/optee/quiz_test/ta/ta_quiz/quiz_ta.c:49
      c2:	f04f 0300 	mov.w	r3, #0
      c6:	617b      	str	r3, [r7, #20]
/home/rahulmahdev/devel/optee/quiz_test/ta/ta_quiz/quiz_ta.c:53
      c8:	68fa      	ldr	r2, [r7, #12]
      ca:	697b      	ldr	r3, [r7, #20]
      cc:	429a      	cmp	r2, r3
      ce:	d004      	beq.n	da <TA_OpenSessionEntryPoint+0x2e>
/home/rahulmahdev/devel/optee/quiz_test/ta/ta_quiz/quiz_ta.c:54
      d0:	f04f 0306 	mov.w	r3, #6
      d4:	f6cf 73ff 	movt	r3, #65535	; 0xffff
      d8:	e012      	b.n	100 <TA_OpenSessionEntryPoint+0x54>
/home/rahulmahdev/devel/optee/quiz_test/ta/ta_quiz/quiz_ta.c:59
      da:	4b0e      	ldr	r3, [pc, #56]	; (114 <TA_OpenSessionEntryPoint+0x68>)
      dc:	447b      	add	r3, pc
      de:	4798      	blx	r3
/home/rahulmahdev/devel/optee/quiz_test/ta/ta_quiz/quiz_ta.c:64
      e0:	4b0d      	ldr	r3, [pc, #52]	; (118 <TA_OpenSessionEntryPoint+0x6c>)
      e2:	447b      	add	r3, pc
      e4:	9300      	str	r3, [sp, #0]
      e6:	f04f 0301 	mov.w	r3, #1
      ea:	f04f 0202 	mov.w	r2, #2
      ee:	f04f 0140 	mov.w	r1, #64	; 0x40
      f2:	480a      	ldr	r0, [pc, #40]	; (11c <TA_OpenSessionEntryPoint+0x70>)
      f4:	4478      	add	r0, pc
      f6:	4c0a      	ldr	r4, [pc, #40]	; (120 <TA_OpenSessionEntryPoint+0x74>)
      f8:	592c      	ldr	r4, [r5, r4]
      fa:	47a0      	blx	r4
/home/rahulmahdev/devel/optee/quiz_test/ta/ta_quiz/quiz_ta.c:66
      fc:	f04f 0300 	mov.w	r3, #0
/home/rahulmahdev/devel/optee/quiz_test/ta/ta_quiz/quiz_ta.c:67
     100:	4618      	mov	r0, r3
     102:	f107 0718 	add.w	r7, r7, #24
     106:	46bd      	mov	sp, r7
     108:	e9dd 4500 	ldrd	r4, r5, [sp]
     10c:	b002      	add	sp, #8
     10e:	bd80      	pop	{r7, pc}
     110:	0000c47c 	.word	0x0000c47c
     114:	ffffff69 	.word	0xffffff69
     118:	0000ae46 	.word	0x0000ae46
     11c:	0000ae74 	.word	0x0000ae74
     120:	00000060 	.word	0x00000060

00000124 <TA_CloseSessionEntryPoint>:
TA_CloseSessionEntryPoint():
/home/rahulmahdev/devel/optee/quiz_test/ta/ta_quiz/quiz_ta.c:74
     124:	e96d 4504 	strd	r4, r5, [sp, #-16]!
     128:	e9cd 7e02 	strd	r7, lr, [sp, #8]
     12c:	b084      	sub	sp, #16
     12e:	af02      	add	r7, sp, #8
     130:	6078      	str	r0, [r7, #4]
     132:	4d0b      	ldr	r5, [pc, #44]	; (160 <TA_CloseSessionEntryPoint+0x3c>)
     134:	447d      	add	r5, pc
/home/rahulmahdev/devel/optee/quiz_test/ta/ta_quiz/quiz_ta.c:76
     136:	4b0b      	ldr	r3, [pc, #44]	; (164 <TA_CloseSessionEntryPoint+0x40>)
     138:	447b      	add	r3, pc
     13a:	9300      	str	r3, [sp, #0]
     13c:	f04f 0301 	mov.w	r3, #1
     140:	f04f 0202 	mov.w	r2, #2
     144:	f04f 014c 	mov.w	r1, #76	; 0x4c
     148:	4807      	ldr	r0, [pc, #28]	; (168 <TA_CloseSessionEntryPoint+0x44>)
     14a:	4478      	add	r0, pc
     14c:	4c07      	ldr	r4, [pc, #28]	; (16c <TA_CloseSessionEntryPoint+0x48>)
     14e:	592c      	ldr	r4, [r5, r4]
     150:	47a0      	blx	r4
/home/rahulmahdev/devel/optee/quiz_test/ta/ta_quiz/quiz_ta.c:77
     152:	f107 0708 	add.w	r7, r7, #8
     156:	46bd      	mov	sp, r7
     158:	e9dd 4500 	ldrd	r4, r5, [sp]
     15c:	b002      	add	sp, #8
     15e:	bd80      	pop	{r7, pc}
     160:	0000c408 	.word	0x0000c408
     164:	0000ae08 	.word	0x0000ae08
     168:	0000ae3a 	.word	0x0000ae3a
     16c:	00000060 	.word	0x00000060

00000170 <start_quiz>:
start_quiz():
/home/rahulmahdev/devel/optee/quiz_test/ta/ta_quiz/quiz_ta.c:80
     170:	e96d 4504 	strd	r4, r5, [sp, #-16]!
     174:	e9cd 7e02 	strd	r7, lr, [sp, #8]
     178:	b088      	sub	sp, #32
     17a:	af04      	add	r7, sp, #16
     17c:	6078      	str	r0, [r7, #4]
     17e:	6039      	str	r1, [r7, #0]
     180:	4d26      	ldr	r5, [pc, #152]	; (21c <start_quiz+0xac>)
     182:	447d      	add	r5, pc
/home/rahulmahdev/devel/optee/quiz_test/ta/ta_quiz/quiz_ta.c:81
     184:	f04f 0302 	mov.w	r3, #2
     188:	60fb      	str	r3, [r7, #12]
/home/rahulmahdev/devel/optee/quiz_test/ta/ta_quiz/quiz_ta.c:86
     18a:	687a      	ldr	r2, [r7, #4]
     18c:	68fb      	ldr	r3, [r7, #12]
     18e:	429a      	cmp	r2, r3
     190:	d004      	beq.n	19c <start_quiz+0x2c>
/home/rahulmahdev/devel/optee/quiz_test/ta/ta_quiz/quiz_ta.c:87
     192:	f04f 0306 	mov.w	r3, #6
     196:	f6cf 73ff 	movt	r3, #65535	; 0xffff
     19a:	e036      	b.n	20a <start_quiz+0x9a>
/home/rahulmahdev/devel/optee/quiz_test/ta/ta_quiz/quiz_ta.c:89
     19c:	4b20      	ldr	r3, [pc, #128]	; (220 <start_quiz+0xb0>)
     19e:	447b      	add	r3, pc
     1a0:	681a      	ldr	r2, [r3, #0]
     1a2:	4b20      	ldr	r3, [pc, #128]	; (224 <start_quiz+0xb4>)
     1a4:	447b      	add	r3, pc
     1a6:	681b      	ldr	r3, [r3, #0]
     1a8:	429a      	cmp	r2, r3
     1aa:	da20      	bge.n	1ee <start_quiz+0x7e>
/home/rahulmahdev/devel/optee/quiz_test/ta/ta_quiz/quiz_ta.c:90
     1ac:	683b      	ldr	r3, [r7, #0]
     1ae:	f04f 0201 	mov.w	r2, #1
     1b2:	601a      	str	r2, [r3, #0]
/home/rahulmahdev/devel/optee/quiz_test/ta/ta_quiz/quiz_ta.c:91
     1b4:	4b1c      	ldr	r3, [pc, #112]	; (228 <start_quiz+0xb8>)
     1b6:	447b      	add	r3, pc
     1b8:	681b      	ldr	r3, [r3, #0]
     1ba:	f103 0301 	add.w	r3, r3, #1
     1be:	4a1b      	ldr	r2, [pc, #108]	; (22c <start_quiz+0xbc>)
     1c0:	447a      	add	r2, pc
     1c2:	6812      	ldr	r2, [r2, #0]
     1c4:	491a      	ldr	r1, [pc, #104]	; (230 <start_quiz+0xc0>)
     1c6:	4479      	add	r1, pc
     1c8:	f851 2022 	ldr.w	r2, [r1, r2, lsl #2]
     1cc:	9202      	str	r2, [sp, #8]
     1ce:	9301      	str	r3, [sp, #4]
     1d0:	4b18      	ldr	r3, [pc, #96]	; (234 <start_quiz+0xc4>)
     1d2:	447b      	add	r3, pc
     1d4:	9300      	str	r3, [sp, #0]
     1d6:	f04f 0301 	mov.w	r3, #1
     1da:	f04f 0202 	mov.w	r2, #2
     1de:	f04f 015b 	mov.w	r1, #91	; 0x5b
     1e2:	4815      	ldr	r0, [pc, #84]	; (238 <start_quiz+0xc8>)
     1e4:	4478      	add	r0, pc
     1e6:	4c15      	ldr	r4, [pc, #84]	; (23c <start_quiz+0xcc>)
     1e8:	592c      	ldr	r4, [r5, r4]
     1ea:	47a0      	blx	r4
     1ec:	e003      	b.n	1f6 <start_quiz+0x86>
/home/rahulmahdev/devel/optee/quiz_test/ta/ta_quiz/quiz_ta.c:93
     1ee:	683b      	ldr	r3, [r7, #0]
     1f0:	f04f 0200 	mov.w	r2, #0
     1f4:	601a      	str	r2, [r3, #0]
/home/rahulmahdev/devel/optee/quiz_test/ta/ta_quiz/quiz_ta.c:95
     1f6:	4b12      	ldr	r3, [pc, #72]	; (240 <start_quiz+0xd0>)
     1f8:	447b      	add	r3, pc
     1fa:	681b      	ldr	r3, [r3, #0]
     1fc:	f103 0301 	add.w	r3, r3, #1
     200:	4a10      	ldr	r2, [pc, #64]	; (244 <start_quiz+0xd4>)
     202:	447a      	add	r2, pc
     204:	6013      	str	r3, [r2, #0]
/home/rahulmahdev/devel/optee/quiz_test/ta/ta_quiz/quiz_ta.c:96
     206:	f04f 0300 	mov.w	r3, #0
/home/rahulmahdev/devel/optee/quiz_test/ta/ta_quiz/quiz_ta.c:97
     20a:	4618      	mov	r0, r3
     20c:	f107 0710 	add.w	r7, r7, #16
     210:	46bd      	mov	sp, r7
     212:	e9dd 4500 	ldrd	r4, r5, [sp]
     216:	b002      	add	sp, #8
     218:	bd80      	pop	{r7, pc}
     21a:	bf00      	nop
     21c:	0000c3ba 	.word	0x0000c3ba
     220:	0000cefa 	.word	0x0000cefa
     224:	0000cef8 	.word	0x0000cef8
     228:	0000cee2 	.word	0x0000cee2
     22c:	0000ced8 	.word	0x0000ced8
     230:	0000ceda 	.word	0x0000ceda
     234:	0000ad82 	.word	0x0000ad82
     238:	0000adbc 	.word	0x0000adbc
     23c:	00000060 	.word	0x00000060
     240:	0000cea0 	.word	0x0000cea0
     244:	0000ce96 	.word	0x0000ce96

00000248 <TA_InvokeCommandEntryPoint>:
TA_InvokeCommandEntryPoint():
/home/rahulmahdev/devel/optee/quiz_test/ta/ta_quiz/quiz_ta.c:106
     248:	e96d 7e02 	strd	r7, lr, [sp, #-8]!
     24c:	b084      	sub	sp, #16
     24e:	af00      	add	r7, sp, #0
     250:	60f8      	str	r0, [r7, #12]
     252:	60b9      	str	r1, [r7, #8]
     254:	607a      	str	r2, [r7, #4]
     256:	603b      	str	r3, [r7, #0]
/home/rahulmahdev/devel/optee/quiz_test/ta/ta_quiz/quiz_ta.c:109
     258:	68bb      	ldr	r3, [r7, #8]
     25a:	2b00      	cmp	r3, #0
     25c:	d106      	bne.n	26c <TA_InvokeCommandEntryPoint+0x24>
/home/rahulmahdev/devel/optee/quiz_test/ta/ta_quiz/quiz_ta.c:111
     25e:	6839      	ldr	r1, [r7, #0]
     260:	6878      	ldr	r0, [r7, #4]
     262:	4b07      	ldr	r3, [pc, #28]	; (280 <TA_InvokeCommandEntryPoint+0x38>)
     264:	447b      	add	r3, pc
     266:	4798      	blx	r3
     268:	4603      	mov	r3, r0
     26a:	e003      	b.n	274 <TA_InvokeCommandEntryPoint+0x2c>
/home/rahulmahdev/devel/optee/quiz_test/ta/ta_quiz/quiz_ta.c:113
     26c:	f04f 0306 	mov.w	r3, #6
     270:	f6cf 73ff 	movt	r3, #65535	; 0xffff
/home/rahulmahdev/devel/optee/quiz_test/ta/ta_quiz/quiz_ta.c:115
     274:	4618      	mov	r0, r3
     276:	f107 0710 	add.w	r7, r7, #16
     27a:	46bd      	mov	sp, r7
     27c:	bd80      	pop	{r7, pc}
     27e:	bf00      	nop
     280:	ffffff09 	.word	0xffffff09

00000284 <tahead_get_trace_level>:
tahead_get_trace_level():
/home/rahulmahdev/devel/optee/optee_os/out/arm-plat-vexpress/export-user_ta/src/user_ta_header.c:109
     284:	f84d 7d04 	str.w	r7, [sp, #-4]!
     288:	af00      	add	r7, sp, #0
/home/rahulmahdev/devel/optee/optee_os/out/arm-plat-vexpress/export-user_ta/src/user_ta_header.c:113
     28a:	f04f 0302 	mov.w	r3, #2
/home/rahulmahdev/devel/optee/optee_os/out/arm-plat-vexpress/export-user_ta/src/user_ta_header.c:114
     28e:	4618      	mov	r0, r3
     290:	46bd      	mov	sp, r7
     292:	f85d 7b04 	ldr.w	r7, [sp], #4
     296:	4770      	bx	lr

00000298 <ta_header_save_params>:
ta_header_save_params():
/home/rahulmahdev/devel/optee/optee_os/lib/libutee/arch/arm/user_ta_entry.c:74
     298:	f84d 4d0c 	str.w	r4, [sp, #-12]!
     29c:	e9cd 7e01 	strd	r7, lr, [sp, #4]
     2a0:	b083      	sub	sp, #12
     2a2:	af00      	add	r7, sp, #0
     2a4:	6078      	str	r0, [r7, #4]
     2a6:	6039      	str	r1, [r7, #0]
     2a8:	4b11      	ldr	r3, [pc, #68]	; (2f0 <ta_header_save_params+0x58>)
     2aa:	447b      	add	r3, pc
/home/rahulmahdev/devel/optee/optee_os/lib/libutee/arch/arm/user_ta_entry.c:75
     2ac:	4a11      	ldr	r2, [pc, #68]	; (2f4 <ta_header_save_params+0x5c>)
     2ae:	447a      	add	r2, pc
     2b0:	4611      	mov	r1, r2
     2b2:	687a      	ldr	r2, [r7, #4]
     2b4:	600a      	str	r2, [r1, #0]
/home/rahulmahdev/devel/optee/optee_os/lib/libutee/arch/arm/user_ta_entry.c:76
     2b6:	683a      	ldr	r2, [r7, #0]
     2b8:	2a00      	cmp	r2, #0
     2ba:	d008      	beq.n	2ce <ta_header_save_params+0x36>
/home/rahulmahdev/devel/optee/optee_os/lib/libutee/arch/arm/user_ta_entry.c:77
     2bc:	f04f 0220 	mov.w	r2, #32
     2c0:	6839      	ldr	r1, [r7, #0]
     2c2:	480d      	ldr	r0, [pc, #52]	; (2f8 <ta_header_save_params+0x60>)
     2c4:	4478      	add	r0, pc
     2c6:	4c0d      	ldr	r4, [pc, #52]	; (2fc <ta_header_save_params+0x64>)
     2c8:	591b      	ldr	r3, [r3, r4]
     2ca:	4798      	blx	r3
     2cc:	e008      	b.n	2e0 <ta_header_save_params+0x48>
/home/rahulmahdev/devel/optee/optee_os/lib/libutee/arch/arm/user_ta_entry.c:79
     2ce:	f04f 0220 	mov.w	r2, #32
     2d2:	f04f 0100 	mov.w	r1, #0
     2d6:	480a      	ldr	r0, [pc, #40]	; (300 <ta_header_save_params+0x68>)
     2d8:	4478      	add	r0, pc
     2da:	4c0a      	ldr	r4, [pc, #40]	; (304 <ta_header_save_params+0x6c>)
     2dc:	591b      	ldr	r3, [r3, r4]
     2de:	4798      	blx	r3
/home/rahulmahdev/devel/optee/optee_os/lib/libutee/arch/arm/user_ta_entry.c:80
     2e0:	f107 070c 	add.w	r7, r7, #12
     2e4:	46bd      	mov	sp, r7
     2e6:	e9dd 4700 	ldrd	r4, r7, [sp]
     2ea:	b002      	add	sp, #8
     2ec:	f85d fb04 	ldr.w	pc, [sp], #4
     2f0:	0000c292 	.word	0x0000c292
     2f4:	00014dfe 	.word	0x00014dfe
     2f8:	00014dec 	.word	0x00014dec
     2fc:	00000064 	.word	0x00000064
     300:	00014dd8 	.word	0x00014dd8
     304:	0000011c 	.word	0x0000011c

00000308 <ta_header_get_session>:
ta_header_get_session():
/home/rahulmahdev/devel/optee/optee_os/lib/libutee/arch/arm/user_ta_entry.c:83
     308:	f84d 7d04 	str.w	r7, [sp, #-4]!
     30c:	b085      	sub	sp, #20
     30e:	af00      	add	r7, sp, #0
     310:	6078      	str	r0, [r7, #4]
/home/rahulmahdev/devel/optee/optee_os/lib/libutee/arch/arm/user_ta_entry.c:85
     312:	4b0d      	ldr	r3, [pc, #52]	; (348 <ta_header_get_session+0x40>)
     314:	447b      	add	r3, pc
     316:	681b      	ldr	r3, [r3, #0]
     318:	60fb      	str	r3, [r7, #12]
     31a:	e009      	b.n	330 <ta_header_get_session+0x28>
/home/rahulmahdev/devel/optee/optee_os/lib/libutee/arch/arm/user_ta_entry.c:86
     31c:	68fb      	ldr	r3, [r7, #12]
     31e:	681a      	ldr	r2, [r3, #0]
     320:	687b      	ldr	r3, [r7, #4]
     322:	429a      	cmp	r2, r3
     324:	d101      	bne.n	32a <ta_header_get_session+0x22>
/home/rahulmahdev/devel/optee/optee_os/lib/libutee/arch/arm/user_ta_entry.c:87
     326:	68fb      	ldr	r3, [r7, #12]
     328:	e007      	b.n	33a <ta_header_get_session+0x32>
/home/rahulmahdev/devel/optee/optee_os/lib/libutee/arch/arm/user_ta_entry.c:85 (discriminator 2)
     32a:	68fb      	ldr	r3, [r7, #12]
     32c:	689b      	ldr	r3, [r3, #8]
     32e:	60fb      	str	r3, [r7, #12]
/home/rahulmahdev/devel/optee/optee_os/lib/libutee/arch/arm/user_ta_entry.c:85 (discriminator 1)
     330:	68fb      	ldr	r3, [r7, #12]
     332:	2b00      	cmp	r3, #0
     334:	d1f2      	bne.n	31c <ta_header_get_session+0x14>
/home/rahulmahdev/devel/optee/optee_os/lib/libutee/arch/arm/user_ta_entry.c:89
     336:	f04f 0300 	mov.w	r3, #0
/home/rahulmahdev/devel/optee/optee_os/lib/libutee/arch/arm/user_ta_entry.c:90
     33a:	4618      	mov	r0, r3
     33c:	f107 0714 	add.w	r7, r7, #20
     340:	46bd      	mov	sp, r7
     342:	f85d 7b04 	ldr.w	r7, [sp], #4
     346:	4770      	bx	lr
     348:	0000cd58 	.word	0x0000cd58

0000034c <ta_header_add_session>:
ta_header_add_session():
/home/rahulmahdev/devel/optee/optee_os/lib/libutee/arch/arm/user_ta_entry.c:93
     34c:	f84d 4d0c 	str.w	r4, [sp, #-12]!
     350:	e9cd 7e01 	strd	r7, lr, [sp, #4]
     354:	b085      	sub	sp, #20
     356:	af00      	add	r7, sp, #0
     358:	6078      	str	r0, [r7, #4]
     35a:	4c3d      	ldr	r4, [pc, #244]	; (450 <ta_header_add_session+0x104>)
     35c:	447c      	add	r4, pc
/home/rahulmahdev/devel/optee/optee_os/lib/libutee/arch/arm/user_ta_entry.c:94
     35e:	6878      	ldr	r0, [r7, #4]
     360:	4b3c      	ldr	r3, [pc, #240]	; (454 <ta_header_add_session+0x108>)
     362:	447b      	add	r3, pc
     364:	4798      	blx	r3
     366:	60f8      	str	r0, [r7, #12]
/home/rahulmahdev/devel/optee/optee_os/lib/libutee/arch/arm/user_ta_entry.c:95
     368:	68fb      	ldr	r3, [r7, #12]
     36a:	2b00      	cmp	r3, #0
     36c:	d002      	beq.n	374 <ta_header_add_session+0x28>
/home/rahulmahdev/devel/optee/optee_os/lib/libutee/arch/arm/user_ta_entry.c:96
     36e:	f04f 0300 	mov.w	r3, #0
     372:	e064      	b.n	43e <ta_header_add_session+0xf2>
/home/rahulmahdev/devel/optee/optee_os/lib/libutee/arch/arm/user_ta_entry.c:98
     374:	4b38      	ldr	r3, [pc, #224]	; (458 <ta_header_add_session+0x10c>)
     376:	447b      	add	r3, pc
     378:	681b      	ldr	r3, [r3, #0]
     37a:	f103 0301 	add.w	r3, r3, #1
     37e:	4a37      	ldr	r2, [pc, #220]	; (45c <ta_header_add_session+0x110>)
     380:	447a      	add	r2, pc
     382:	6013      	str	r3, [r2, #0]
/home/rahulmahdev/devel/optee/optee_os/lib/libutee/arch/arm/user_ta_entry.c:100
     384:	4b36      	ldr	r3, [pc, #216]	; (460 <ta_header_add_session+0x114>)
     386:	447b      	add	r3, pc
     388:	681b      	ldr	r3, [r3, #0]
     38a:	2b01      	cmp	r3, #1
     38c:	d12a      	bne.n	3e4 <ta_header_add_session+0x98>
/home/rahulmahdev/devel/optee/optee_os/lib/libutee/arch/arm/user_ta_entry.c:103
     38e:	4b35      	ldr	r3, [pc, #212]	; (464 <ta_header_add_session+0x118>)
     390:	447b      	add	r3, pc
     392:	781b      	ldrb	r3, [r3, #0]
     394:	f083 0301 	eor.w	r3, r3, #1
     398:	b2db      	uxtb	r3, r3
     39a:	2b00      	cmp	r3, #0
     39c:	d019      	beq.n	3d2 <ta_header_add_session+0x86>
/home/rahulmahdev/devel/optee/optee_os/lib/libutee/arch/arm/user_ta_entry.c:104
     39e:	4b32      	ldr	r3, [pc, #200]	; (468 <ta_header_add_session+0x11c>)
     3a0:	58e3      	ldr	r3, [r4, r3]
     3a2:	4798      	blx	r3
     3a4:	4603      	mov	r3, r0
     3a6:	4618      	mov	r0, r3
     3a8:	4b30      	ldr	r3, [pc, #192]	; (46c <ta_header_add_session+0x120>)
     3aa:	58e3      	ldr	r3, [r4, r3]
     3ac:	4798      	blx	r3
/home/rahulmahdev/devel/optee/optee_os/lib/libutee/arch/arm/user_ta_entry.c:105
     3ae:	4b30      	ldr	r3, [pc, #192]	; (470 <ta_header_add_session+0x124>)
     3b0:	58e3      	ldr	r3, [r4, r3]
     3b2:	681b      	ldr	r3, [r3, #0]
     3b4:	4619      	mov	r1, r3
     3b6:	4b2f      	ldr	r3, [pc, #188]	; (474 <ta_header_add_session+0x128>)
     3b8:	58e3      	ldr	r3, [r4, r3]
     3ba:	4618      	mov	r0, r3
     3bc:	4b2e      	ldr	r3, [pc, #184]	; (478 <ta_header_add_session+0x12c>)
     3be:	58e3      	ldr	r3, [r4, r3]
     3c0:	4798      	blx	r3
/home/rahulmahdev/devel/optee/optee_os/lib/libutee/arch/arm/user_ta_entry.c:106
     3c2:	4b2e      	ldr	r3, [pc, #184]	; (47c <ta_header_add_session+0x130>)
     3c4:	58e3      	ldr	r3, [r4, r3]
     3c6:	4798      	blx	r3
/home/rahulmahdev/devel/optee/optee_os/lib/libutee/arch/arm/user_ta_entry.c:107
     3c8:	4b2d      	ldr	r3, [pc, #180]	; (480 <ta_header_add_session+0x134>)
     3ca:	447b      	add	r3, pc
     3cc:	f04f 0201 	mov.w	r2, #1
     3d0:	701a      	strb	r2, [r3, #0]
/home/rahulmahdev/devel/optee/optee_os/lib/libutee/arch/arm/user_ta_entry.c:110
     3d2:	4b2c      	ldr	r3, [pc, #176]	; (484 <ta_header_add_session+0x138>)
     3d4:	58e3      	ldr	r3, [r4, r3]
     3d6:	4798      	blx	r3
     3d8:	60b8      	str	r0, [r7, #8]
/home/rahulmahdev/devel/optee/optee_os/lib/libutee/arch/arm/user_ta_entry.c:111
     3da:	68bb      	ldr	r3, [r7, #8]
     3dc:	2b00      	cmp	r3, #0
     3de:	d001      	beq.n	3e4 <ta_header_add_session+0x98>
/home/rahulmahdev/devel/optee/optee_os/lib/libutee/arch/arm/user_ta_entry.c:112
     3e0:	68bb      	ldr	r3, [r7, #8]
     3e2:	e02c      	b.n	43e <ta_header_add_session+0xf2>
/home/rahulmahdev/devel/optee/optee_os/lib/libutee/arch/arm/user_ta_entry.c:115
     3e4:	f04f 4100 	mov.w	r1, #2147483648	; 0x80000000
     3e8:	f04f 0010 	mov.w	r0, #16
     3ec:	4b26      	ldr	r3, [pc, #152]	; (488 <ta_header_add_session+0x13c>)
     3ee:	58e3      	ldr	r3, [r4, r3]
     3f0:	4798      	blx	r3
     3f2:	60f8      	str	r0, [r7, #12]
/home/rahulmahdev/devel/optee/optee_os/lib/libutee/arch/arm/user_ta_entry.c:118
     3f4:	68fb      	ldr	r3, [r7, #12]
     3f6:	2b00      	cmp	r3, #0
     3f8:	d104      	bne.n	404 <ta_header_add_session+0xb8>
/home/rahulmahdev/devel/optee/optee_os/lib/libutee/arch/arm/user_ta_entry.c:119
     3fa:	f04f 030c 	mov.w	r3, #12
     3fe:	f6cf 73ff 	movt	r3, #65535	; 0xffff
     402:	e01c      	b.n	43e <ta_header_add_session+0xf2>
/home/rahulmahdev/devel/optee/optee_os/lib/libutee/arch/arm/user_ta_entry.c:120
     404:	68fb      	ldr	r3, [r7, #12]
     406:	687a      	ldr	r2, [r7, #4]
     408:	601a      	str	r2, [r3, #0]
/home/rahulmahdev/devel/optee/optee_os/lib/libutee/arch/arm/user_ta_entry.c:121
     40a:	68fb      	ldr	r3, [r7, #12]
     40c:	f04f 0200 	mov.w	r2, #0
     410:	605a      	str	r2, [r3, #4]
/home/rahulmahdev/devel/optee/optee_os/lib/libutee/arch/arm/user_ta_entry.c:122
     412:	68fb      	ldr	r3, [r7, #12]
     414:	f04f 0200 	mov.w	r2, #0
     418:	609a      	str	r2, [r3, #8]
     41a:	4b1c      	ldr	r3, [pc, #112]	; (48c <ta_header_add_session+0x140>)
     41c:	447b      	add	r3, pc
     41e:	685a      	ldr	r2, [r3, #4]
     420:	68fb      	ldr	r3, [r7, #12]
     422:	60da      	str	r2, [r3, #12]
     424:	4b1a      	ldr	r3, [pc, #104]	; (490 <ta_header_add_session+0x144>)
     426:	447b      	add	r3, pc
     428:	685b      	ldr	r3, [r3, #4]
     42a:	68fa      	ldr	r2, [r7, #12]
     42c:	601a      	str	r2, [r3, #0]
     42e:	68fb      	ldr	r3, [r7, #12]
     430:	f103 0308 	add.w	r3, r3, #8
     434:	4a17      	ldr	r2, [pc, #92]	; (494 <ta_header_add_session+0x148>)
     436:	447a      	add	r2, pc
     438:	6053      	str	r3, [r2, #4]
/home/rahulmahdev/devel/optee/optee_os/lib/libutee/arch/arm/user_ta_entry.c:124
     43a:	f04f 0300 	mov.w	r3, #0
/home/rahulmahdev/devel/optee/optee_os/lib/libutee/arch/arm/user_ta_entry.c:125
     43e:	4618      	mov	r0, r3
     440:	f107 0714 	add.w	r7, r7, #20
     444:	46bd      	mov	sp, r7
     446:	e9dd 4700 	ldrd	r4, r7, [sp]
     44a:	b002      	add	sp, #8
     44c:	f85d fb04 	ldr.w	pc, [sp], #4
     450:	0000c1e0 	.word	0x0000c1e0
     454:	ffffffa3 	.word	0xffffffa3
     458:	00014d32 	.word	0x00014d32
     45c:	00014d28 	.word	0x00014d28
     460:	00014d22 	.word	0x00014d22
     464:	00017830 	.word	0x00017830
     468:	0000014c 	.word	0x0000014c
     46c:	0000013c 	.word	0x0000013c
     470:	00000044 	.word	0x00000044
     474:	000000ac 	.word	0x000000ac
     478:	0000004c 	.word	0x0000004c
     47c:	000000a8 	.word	0x000000a8
     480:	000177f6 	.word	0x000177f6
     484:	0000016c 	.word	0x0000016c
     488:	000000c8 	.word	0x000000c8
     48c:	0000cc50 	.word	0x0000cc50
     490:	0000cc46 	.word	0x0000cc46
     494:	0000cc36 	.word	0x0000cc36

00000498 <ta_header_remove_session>:
ta_header_remove_session():
/home/rahulmahdev/devel/optee/optee_os/lib/libutee/arch/arm/user_ta_entry.c:128
     498:	f84d 4d0c 	str.w	r4, [sp, #-12]!
     49c:	e9cd 7e01 	strd	r7, lr, [sp, #4]
     4a0:	b085      	sub	sp, #20
     4a2:	af00      	add	r7, sp, #0
     4a4:	6078      	str	r0, [r7, #4]
     4a6:	4c22      	ldr	r4, [pc, #136]	; (530 <ta_header_remove_session+0x98>)
     4a8:	447c      	add	r4, pc
/home/rahulmahdev/devel/optee/optee_os/lib/libutee/arch/arm/user_ta_entry.c:130
     4aa:	4b22      	ldr	r3, [pc, #136]	; (534 <ta_header_remove_session+0x9c>)
     4ac:	447b      	add	r3, pc
     4ae:	681b      	ldr	r3, [r3, #0]
     4b0:	60fb      	str	r3, [r7, #12]
     4b2:	e031      	b.n	518 <ta_header_remove_session+0x80>
/home/rahulmahdev/devel/optee/optee_os/lib/libutee/arch/arm/user_ta_entry.c:131
     4b4:	68fb      	ldr	r3, [r7, #12]
     4b6:	681a      	ldr	r2, [r3, #0]
     4b8:	687b      	ldr	r3, [r7, #4]
     4ba:	429a      	cmp	r2, r3
     4bc:	d129      	bne.n	512 <ta_header_remove_session+0x7a>
/home/rahulmahdev/devel/optee/optee_os/lib/libutee/arch/arm/user_ta_entry.c:132
     4be:	68fb      	ldr	r3, [r7, #12]
     4c0:	689b      	ldr	r3, [r3, #8]
     4c2:	2b00      	cmp	r3, #0
     4c4:	d005      	beq.n	4d2 <ta_header_remove_session+0x3a>
/home/rahulmahdev/devel/optee/optee_os/lib/libutee/arch/arm/user_ta_entry.c:132 (discriminator 1)
     4c6:	68fb      	ldr	r3, [r7, #12]
     4c8:	689b      	ldr	r3, [r3, #8]
     4ca:	68fa      	ldr	r2, [r7, #12]
     4cc:	68d2      	ldr	r2, [r2, #12]
     4ce:	60da      	str	r2, [r3, #12]
     4d0:	e004      	b.n	4dc <ta_header_remove_session+0x44>
/home/rahulmahdev/devel/optee/optee_os/lib/libutee/arch/arm/user_ta_entry.c:132 (discriminator 2)
     4d2:	68fb      	ldr	r3, [r7, #12]
     4d4:	68db      	ldr	r3, [r3, #12]
     4d6:	4a18      	ldr	r2, [pc, #96]	; (538 <ta_header_remove_session+0xa0>)
     4d8:	447a      	add	r2, pc
     4da:	6053      	str	r3, [r2, #4]
/home/rahulmahdev/devel/optee/optee_os/lib/libutee/arch/arm/user_ta_entry.c:132 (discriminator 4)
     4dc:	68fb      	ldr	r3, [r7, #12]
     4de:	68db      	ldr	r3, [r3, #12]
     4e0:	68fa      	ldr	r2, [r7, #12]
     4e2:	6892      	ldr	r2, [r2, #8]
     4e4:	601a      	str	r2, [r3, #0]
/home/rahulmahdev/devel/optee/optee_os/lib/libutee/arch/arm/user_ta_entry.c:133 (discriminator 4)
     4e6:	68f8      	ldr	r0, [r7, #12]
     4e8:	4b14      	ldr	r3, [pc, #80]	; (53c <ta_header_remove_session+0xa4>)
     4ea:	58e3      	ldr	r3, [r4, r3]
     4ec:	4798      	blx	r3
/home/rahulmahdev/devel/optee/optee_os/lib/libutee/arch/arm/user_ta_entry.c:135 (discriminator 4)
     4ee:	4b14      	ldr	r3, [pc, #80]	; (540 <ta_header_remove_session+0xa8>)
     4f0:	447b      	add	r3, pc
     4f2:	681b      	ldr	r3, [r3, #0]
     4f4:	f103 33ff 	add.w	r3, r3, #4294967295
     4f8:	4a12      	ldr	r2, [pc, #72]	; (544 <ta_header_remove_session+0xac>)
     4fa:	447a      	add	r2, pc
     4fc:	6013      	str	r3, [r2, #0]
/home/rahulmahdev/devel/optee/optee_os/lib/libutee/arch/arm/user_ta_entry.c:136 (discriminator 4)
     4fe:	4b12      	ldr	r3, [pc, #72]	; (548 <ta_header_remove_session+0xb0>)
     500:	447b      	add	r3, pc
     502:	681b      	ldr	r3, [r3, #0]
     504:	2b00      	cmp	r3, #0
     506:	d103      	bne.n	510 <ta_header_remove_session+0x78>
/home/rahulmahdev/devel/optee/optee_os/lib/libutee/arch/arm/user_ta_entry.c:137
     508:	4b10      	ldr	r3, [pc, #64]	; (54c <ta_header_remove_session+0xb4>)
     50a:	58e3      	ldr	r3, [r4, r3]
     50c:	4798      	blx	r3
/home/rahulmahdev/devel/optee/optee_os/lib/libutee/arch/arm/user_ta_entry.c:139
     50e:	e006      	b.n	51e <ta_header_remove_session+0x86>
     510:	e005      	b.n	51e <ta_header_remove_session+0x86>
/home/rahulmahdev/devel/optee/optee_os/lib/libutee/arch/arm/user_ta_entry.c:130 (discriminator 2)
     512:	68fb      	ldr	r3, [r7, #12]
     514:	689b      	ldr	r3, [r3, #8]
     516:	60fb      	str	r3, [r7, #12]
/home/rahulmahdev/devel/optee/optee_os/lib/libutee/arch/arm/user_ta_entry.c:130 (discriminator 1)
     518:	68fb      	ldr	r3, [r7, #12]
     51a:	2b00      	cmp	r3, #0
     51c:	d1ca      	bne.n	4b4 <ta_header_remove_session+0x1c>
/home/rahulmahdev/devel/optee/optee_os/lib/libutee/arch/arm/user_ta_entry.c:142
     51e:	f107 0714 	add.w	r7, r7, #20
     522:	46bd      	mov	sp, r7
     524:	e9dd 4700 	ldrd	r4, r7, [sp]
     528:	b002      	add	sp, #8
     52a:	f85d fb04 	ldr.w	pc, [sp], #4
     52e:	bf00      	nop
     530:	0000c094 	.word	0x0000c094
     534:	0000cbc0 	.word	0x0000cbc0
     538:	0000cb94 	.word	0x0000cb94
     53c:	00000170 	.word	0x00000170
     540:	00014bb8 	.word	0x00014bb8
     544:	00014bae 	.word	0x00014bae
     548:	00014ba8 	.word	0x00014ba8
     54c:	000000a0 	.word	0x000000a0

00000550 <ta_entry_open_session>:
ta_entry_open_session():
/home/rahulmahdev/devel/optee/optee_os/lib/libutee/arch/arm/user_ta_entry.c:148
     550:	f84d 4d0c 	str.w	r4, [sp, #-12]!
     554:	e9cd 7e01 	strd	r7, lr, [sp, #4]
     558:	b087      	sub	sp, #28
     55a:	af00      	add	r7, sp, #0
     55c:	60f8      	str	r0, [r7, #12]
     55e:	60b9      	str	r1, [r7, #8]
     560:	607a      	str	r2, [r7, #4]
     562:	4c1b      	ldr	r4, [pc, #108]	; (5d0 <ta_entry_open_session+0x80>)
     564:	447c      	add	r4, pc
/home/rahulmahdev/devel/optee/optee_os/lib/libutee/arch/arm/user_ta_entry.c:152
     566:	6878      	ldr	r0, [r7, #4]
     568:	4b1a      	ldr	r3, [pc, #104]	; (5d4 <ta_entry_open_session+0x84>)
     56a:	447b      	add	r3, pc
     56c:	4798      	blx	r3
     56e:	6178      	str	r0, [r7, #20]
/home/rahulmahdev/devel/optee/optee_os/lib/libutee/arch/arm/user_ta_entry.c:153
     570:	697b      	ldr	r3, [r7, #20]
     572:	2b00      	cmp	r3, #0
     574:	d000      	beq.n	578 <ta_entry_open_session+0x28>
/home/rahulmahdev/devel/optee/optee_os/lib/libutee/arch/arm/user_ta_entry.c:154
     576:	e01f      	b.n	5b8 <ta_entry_open_session+0x68>
/home/rahulmahdev/devel/optee/optee_os/lib/libutee/arch/arm/user_ta_entry.c:156
     578:	6878      	ldr	r0, [r7, #4]
     57a:	4b17      	ldr	r3, [pc, #92]	; (5d8 <ta_entry_open_session+0x88>)
     57c:	447b      	add	r3, pc
     57e:	4798      	blx	r3
     580:	6138      	str	r0, [r7, #16]
/home/rahulmahdev/devel/optee/optee_os/lib/libutee/arch/arm/user_ta_entry.c:157
     582:	693b      	ldr	r3, [r7, #16]
     584:	2b00      	cmp	r3, #0
     586:	d100      	bne.n	58a <ta_entry_open_session+0x3a>
/home/rahulmahdev/devel/optee/optee_os/lib/libutee/arch/arm/user_ta_entry.c:158
     588:	e016      	b.n	5b8 <ta_entry_open_session+0x68>
/home/rahulmahdev/devel/optee/optee_os/lib/libutee/arch/arm/user_ta_entry.c:160
     58a:	68b9      	ldr	r1, [r7, #8]
     58c:	68f8      	ldr	r0, [r7, #12]
     58e:	4b13      	ldr	r3, [pc, #76]	; (5dc <ta_entry_open_session+0x8c>)
     590:	447b      	add	r3, pc
     592:	4798      	blx	r3
/home/rahulmahdev/devel/optee/optee_os/lib/libutee/arch/arm/user_ta_entry.c:162
     594:	693b      	ldr	r3, [r7, #16]
     596:	f103 0304 	add.w	r3, r3, #4
/home/rahulmahdev/devel/optee/optee_os/lib/libutee/arch/arm/user_ta_entry.c:161
     59a:	461a      	mov	r2, r3
     59c:	68b9      	ldr	r1, [r7, #8]
     59e:	68f8      	ldr	r0, [r7, #12]
     5a0:	4b0f      	ldr	r3, [pc, #60]	; (5e0 <ta_entry_open_session+0x90>)
     5a2:	58e3      	ldr	r3, [r4, r3]
     5a4:	4798      	blx	r3
     5a6:	6178      	str	r0, [r7, #20]
/home/rahulmahdev/devel/optee/optee_os/lib/libutee/arch/arm/user_ta_entry.c:164
     5a8:	697b      	ldr	r3, [r7, #20]
     5aa:	2b00      	cmp	r3, #0
     5ac:	d004      	beq.n	5b8 <ta_entry_open_session+0x68>
/home/rahulmahdev/devel/optee/optee_os/lib/libutee/arch/arm/user_ta_entry.c:165
     5ae:	6878      	ldr	r0, [r7, #4]
     5b0:	4b0c      	ldr	r3, [pc, #48]	; (5e4 <ta_entry_open_session+0x94>)
     5b2:	447b      	add	r3, pc
     5b4:	4798      	blx	r3
/home/rahulmahdev/devel/optee/optee_os/lib/libutee/arch/arm/user_ta_entry.c:166
     5b6:	bf00      	nop
/home/rahulmahdev/devel/optee/optee_os/lib/libutee/arch/arm/user_ta_entry.c:170
     5b8:	f04f 0100 	mov.w	r1, #0
     5bc:	f04f 0000 	mov.w	r0, #0
     5c0:	4b09      	ldr	r3, [pc, #36]	; (5e8 <ta_entry_open_session+0x98>)
     5c2:	447b      	add	r3, pc
     5c4:	4798      	blx	r3
/home/rahulmahdev/devel/optee/optee_os/lib/libutee/arch/arm/user_ta_entry.c:171
     5c6:	6978      	ldr	r0, [r7, #20]
     5c8:	4b08      	ldr	r3, [pc, #32]	; (5ec <ta_entry_open_session+0x9c>)
     5ca:	58e3      	ldr	r3, [r4, r3]
     5cc:	4798      	blx	r3
     5ce:	bf00      	nop
     5d0:	0000bfd8 	.word	0x0000bfd8
     5d4:	fffffddf 	.word	0xfffffddf
     5d8:	fffffd89 	.word	0xfffffd89
     5dc:	fffffd05 	.word	0xfffffd05
     5e0:	000000d4 	.word	0x000000d4
     5e4:	fffffee3 	.word	0xfffffee3
     5e8:	fffffcd3 	.word	0xfffffcd3
     5ec:	0000001c 	.word	0x0000001c

000005f0 <ta_entry_close_session>:
ta_entry_close_session():
/home/rahulmahdev/devel/optee/optee_os/lib/libutee/arch/arm/user_ta_entry.c:175
     5f0:	f84d 4d0c 	str.w	r4, [sp, #-12]!
     5f4:	e9cd 7e01 	strd	r7, lr, [sp, #4]
     5f8:	b085      	sub	sp, #20
     5fa:	af00      	add	r7, sp, #0
     5fc:	6078      	str	r0, [r7, #4]
     5fe:	4c10      	ldr	r4, [pc, #64]	; (640 <ta_entry_close_session+0x50>)
     600:	447c      	add	r4, pc
/home/rahulmahdev/devel/optee/optee_os/lib/libutee/arch/arm/user_ta_entry.c:176
     602:	f04f 0307 	mov.w	r3, #7
     606:	f6cf 73ff 	movt	r3, #65535	; 0xffff
     60a:	60fb      	str	r3, [r7, #12]
/home/rahulmahdev/devel/optee/optee_os/lib/libutee/arch/arm/user_ta_entry.c:179
     60c:	6878      	ldr	r0, [r7, #4]
     60e:	4b0d      	ldr	r3, [pc, #52]	; (644 <ta_entry_close_session+0x54>)
     610:	447b      	add	r3, pc
     612:	4798      	blx	r3
     614:	60b8      	str	r0, [r7, #8]
/home/rahulmahdev/devel/optee/optee_os/lib/libutee/arch/arm/user_ta_entry.c:180
     616:	68bb      	ldr	r3, [r7, #8]
     618:	2b00      	cmp	r3, #0
     61a:	d100      	bne.n	61e <ta_entry_close_session+0x2e>
/home/rahulmahdev/devel/optee/optee_os/lib/libutee/arch/arm/user_ta_entry.c:181
     61c:	e00c      	b.n	638 <ta_entry_close_session+0x48>
/home/rahulmahdev/devel/optee/optee_os/lib/libutee/arch/arm/user_ta_entry.c:183
     61e:	68bb      	ldr	r3, [r7, #8]
     620:	685b      	ldr	r3, [r3, #4]
     622:	4618      	mov	r0, r3
     624:	4b08      	ldr	r3, [pc, #32]	; (648 <ta_entry_close_session+0x58>)
     626:	58e3      	ldr	r3, [r4, r3]
     628:	4798      	blx	r3
/home/rahulmahdev/devel/optee/optee_os/lib/libutee/arch/arm/user_ta_entry.c:185
     62a:	6878      	ldr	r0, [r7, #4]
     62c:	4b07      	ldr	r3, [pc, #28]	; (64c <ta_entry_close_session+0x5c>)
     62e:	447b      	add	r3, pc
     630:	4798      	blx	r3
/home/rahulmahdev/devel/optee/optee_os/lib/libutee/arch/arm/user_ta_entry.c:187
     632:	f04f 0300 	mov.w	r3, #0
     636:	60fb      	str	r3, [r7, #12]
/home/rahulmahdev/devel/optee/optee_os/lib/libutee/arch/arm/user_ta_entry.c:189
     638:	68f8      	ldr	r0, [r7, #12]
     63a:	4b05      	ldr	r3, [pc, #20]	; (650 <ta_entry_close_session+0x60>)
     63c:	58e3      	ldr	r3, [r4, r3]
     63e:	4798      	blx	r3
     640:	0000bf3c 	.word	0x0000bf3c
     644:	fffffcf5 	.word	0xfffffcf5
     648:	000000b0 	.word	0x000000b0
     64c:	fffffe67 	.word	0xfffffe67
     650:	0000001c 	.word	0x0000001c

00000654 <ta_entry_invoke_command>:
ta_entry_invoke_command():
/home/rahulmahdev/devel/optee/optee_os/lib/libutee/arch/arm/user_ta_entry.c:197
     654:	e96d 4504 	strd	r4, r5, [sp, #-16]!
     658:	e9cd 7e02 	strd	r7, lr, [sp, #8]
     65c:	b086      	sub	sp, #24
     65e:	af00      	add	r7, sp, #0
     660:	60f8      	str	r0, [r7, #12]
     662:	60b9      	str	r1, [r7, #8]
     664:	607a      	str	r2, [r7, #4]
     666:	603b      	str	r3, [r7, #0]
     668:	4c14      	ldr	r4, [pc, #80]	; (6bc <ta_entry_invoke_command+0x68>)
     66a:	447c      	add	r4, pc
/home/rahulmahdev/devel/optee/optee_os/lib/libutee/arch/arm/user_ta_entry.c:198
     66c:	f04f 0307 	mov.w	r3, #7
     670:	f6cf 73ff 	movt	r3, #65535	; 0xffff
     674:	617b      	str	r3, [r7, #20]
/home/rahulmahdev/devel/optee/optee_os/lib/libutee/arch/arm/user_ta_entry.c:201
     676:	6838      	ldr	r0, [r7, #0]
     678:	4b11      	ldr	r3, [pc, #68]	; (6c0 <ta_entry_invoke_command+0x6c>)
     67a:	447b      	add	r3, pc
     67c:	4798      	blx	r3
     67e:	6138      	str	r0, [r7, #16]
/home/rahulmahdev/devel/optee/optee_os/lib/libutee/arch/arm/user_ta_entry.c:202
     680:	693b      	ldr	r3, [r7, #16]
     682:	2b00      	cmp	r3, #0
     684:	d100      	bne.n	688 <ta_entry_invoke_command+0x34>
/home/rahulmahdev/devel/optee/optee_os/lib/libutee/arch/arm/user_ta_entry.c:203
     686:	e00d      	b.n	6a4 <ta_entry_invoke_command+0x50>
/home/rahulmahdev/devel/optee/optee_os/lib/libutee/arch/arm/user_ta_entry.c:205
     688:	6879      	ldr	r1, [r7, #4]
     68a:	68b8      	ldr	r0, [r7, #8]
     68c:	4b0d      	ldr	r3, [pc, #52]	; (6c4 <ta_entry_invoke_command+0x70>)
     68e:	447b      	add	r3, pc
     690:	4798      	blx	r3
/home/rahulmahdev/devel/optee/optee_os/lib/libutee/arch/arm/user_ta_entry.c:208
     692:	693b      	ldr	r3, [r7, #16]
     694:	6858      	ldr	r0, [r3, #4]
/home/rahulmahdev/devel/optee/optee_os/lib/libutee/arch/arm/user_ta_entry.c:207
     696:	687b      	ldr	r3, [r7, #4]
     698:	68ba      	ldr	r2, [r7, #8]
     69a:	68f9      	ldr	r1, [r7, #12]
     69c:	4d0a      	ldr	r5, [pc, #40]	; (6c8 <ta_entry_invoke_command+0x74>)
     69e:	5965      	ldr	r5, [r4, r5]
     6a0:	47a8      	blx	r5
     6a2:	6178      	str	r0, [r7, #20]
/home/rahulmahdev/devel/optee/optee_os/lib/libutee/arch/arm/user_ta_entry.c:212
     6a4:	f04f 0100 	mov.w	r1, #0
     6a8:	f04f 0000 	mov.w	r0, #0
     6ac:	4b07      	ldr	r3, [pc, #28]	; (6cc <ta_entry_invoke_command+0x78>)
     6ae:	447b      	add	r3, pc
     6b0:	4798      	blx	r3
/home/rahulmahdev/devel/optee/optee_os/lib/libutee/arch/arm/user_ta_entry.c:213
     6b2:	6978      	ldr	r0, [r7, #20]
     6b4:	4b06      	ldr	r3, [pc, #24]	; (6d0 <ta_entry_invoke_command+0x7c>)
     6b6:	58e3      	ldr	r3, [r4, r3]
     6b8:	4798      	blx	r3
     6ba:	bf00      	nop
     6bc:	0000bed2 	.word	0x0000bed2
     6c0:	fffffc8b 	.word	0xfffffc8b
     6c4:	fffffc07 	.word	0xfffffc07
     6c8:	000000b4 	.word	0x000000b4
     6cc:	fffffbe7 	.word	0xfffffbe7
     6d0:	0000001c 	.word	0x0000001c

000006d4 <utee_return>:
$a():
/home/rahulmahdev/devel/optee/optee_os/lib/libutee/arch/arm/utee_syscalls_asm.S:58
     6d4:	e92d40e0 	push	{r5, r6, r7, lr}
     6d8:	e3a07000 	mov	r7, #0
     6dc:	e3a06000 	mov	r6, #0
     6e0:	ef000000 	svc	0x00000000
     6e4:	e8bd80e0 	pop	{r5, r6, r7, pc}

000006e8 <utee_log>:
utee_log():
/home/rahulmahdev/devel/optee/optee_os/lib/libutee/arch/arm/utee_syscalls_asm.S:60
     6e8:	e92d40e0 	push	{r5, r6, r7, lr}
     6ec:	e3a07001 	mov	r7, #1
     6f0:	e3a06000 	mov	r6, #0
     6f4:	ef000000 	svc	0x00000000
     6f8:	e8bd80e0 	pop	{r5, r6, r7, pc}

000006fc <utee_panic>:
utee_panic():
/home/rahulmahdev/devel/optee/optee_os/lib/libutee/arch/arm/utee_syscalls_asm.S:62
     6fc:	e92d40e0 	push	{r5, r6, r7, lr}
     700:	e3a07002 	mov	r7, #2
     704:	e3a06000 	mov	r6, #0
     708:	ef000000 	svc	0x00000000
     70c:	e8bd80e0 	pop	{r5, r6, r7, pc}

00000710 <utee_dummy>:
utee_dummy():
/home/rahulmahdev/devel/optee/optee_os/lib/libutee/arch/arm/utee_syscalls_asm.S:64
     710:	e92d40e0 	push	{r5, r6, r7, lr}
     714:	e3a07003 	mov	r7, #3
     718:	e3a06000 	mov	r6, #0
     71c:	ef000000 	svc	0x00000000
     720:	e8bd80e0 	pop	{r5, r6, r7, pc}

00000724 <utee_dummy_7args>:
utee_dummy_7args():
/home/rahulmahdev/devel/optee/optee_os/lib/libutee/arch/arm/utee_syscalls_asm.S:66
     724:	e92d40e0 	push	{r5, r6, r7, lr}
     728:	e3a07004 	mov	r7, #4
     72c:	e3a06003 	mov	r6, #3
     730:	e28d5010 	add	r5, sp, #16
     734:	ef000000 	svc	0x00000000
     738:	e8bd80e0 	pop	{r5, r6, r7, pc}

0000073c <utee_nocall>:
utee_nocall():
/home/rahulmahdev/devel/optee/optee_os/lib/libutee/arch/arm/utee_syscalls_asm.S:68
     73c:	e92d40e0 	push	{r5, r6, r7, lr}
     740:	e3a07048 	mov	r7, #72	; 0x48
     744:	e3a06000 	mov	r6, #0
     748:	ef000000 	svc	0x00000000
     74c:	e8bd80e0 	pop	{r5, r6, r7, pc}

00000750 <utee_get_property>:
utee_get_property():
/home/rahulmahdev/devel/optee/optee_os/lib/libutee/arch/arm/utee_syscalls_asm.S:70
     750:	e92d40e0 	push	{r5, r6, r7, lr}
     754:	e3a07005 	mov	r7, #5
     758:	e3a06000 	mov	r6, #0
     75c:	ef000000 	svc	0x00000000
     760:	e8bd80e0 	pop	{r5, r6, r7, pc}

00000764 <utee_open_ta_session>:
utee_open_ta_session():
/home/rahulmahdev/devel/optee/optee_os/lib/libutee/arch/arm/utee_syscalls_asm.S:72
     764:	e92d40e0 	push	{r5, r6, r7, lr}
     768:	e3a07006 	mov	r7, #6
     76c:	e3a06002 	mov	r6, #2
     770:	e28d5010 	add	r5, sp, #16
     774:	ef000000 	svc	0x00000000
     778:	e8bd80e0 	pop	{r5, r6, r7, pc}

0000077c <utee_close_ta_session>:
utee_close_ta_session():
/home/rahulmahdev/devel/optee/optee_os/lib/libutee/arch/arm/utee_syscalls_asm.S:74
     77c:	e92d40e0 	push	{r5, r6, r7, lr}
     780:	e3a07007 	mov	r7, #7
     784:	e3a06000 	mov	r6, #0
     788:	ef000000 	svc	0x00000000
     78c:	e8bd80e0 	pop	{r5, r6, r7, pc}

00000790 <utee_invoke_ta_command>:
utee_invoke_ta_command():
/home/rahulmahdev/devel/optee/optee_os/lib/libutee/arch/arm/utee_syscalls_asm.S:76
     790:	e92d40e0 	push	{r5, r6, r7, lr}
     794:	e3a07008 	mov	r7, #8
     798:	e3a06002 	mov	r6, #2
     79c:	e28d5010 	add	r5, sp, #16
     7a0:	ef000000 	svc	0x00000000
     7a4:	e8bd80e0 	pop	{r5, r6, r7, pc}

000007a8 <utee_get_cancellation_flag>:
utee_get_cancellation_flag():
/home/rahulmahdev/devel/optee/optee_os/lib/libutee/arch/arm/utee_syscalls_asm.S:78
     7a8:	e92d40e0 	push	{r5, r6, r7, lr}
     7ac:	e3a0700a 	mov	r7, #10
     7b0:	e3a06000 	mov	r6, #0
     7b4:	ef000000 	svc	0x00000000
     7b8:	e8bd80e0 	pop	{r5, r6, r7, pc}

000007bc <utee_check_access_rights>:
utee_check_access_rights():
/home/rahulmahdev/devel/optee/optee_os/lib/libutee/arch/arm/utee_syscalls_asm.S:81
     7bc:	e92d40e0 	push	{r5, r6, r7, lr}
     7c0:	e3a07009 	mov	r7, #9
     7c4:	e3a06000 	mov	r6, #0
     7c8:	ef000000 	svc	0x00000000
     7cc:	e8bd80e0 	pop	{r5, r6, r7, pc}

000007d0 <utee_unmask_cancellation>:
utee_unmask_cancellation():
/home/rahulmahdev/devel/optee/optee_os/lib/libutee/arch/arm/utee_syscalls_asm.S:83
     7d0:	e92d40e0 	push	{r5, r6, r7, lr}
     7d4:	e3a0700b 	mov	r7, #11
     7d8:	e3a06000 	mov	r6, #0
     7dc:	ef000000 	svc	0x00000000
     7e0:	e8bd80e0 	pop	{r5, r6, r7, pc}

000007e4 <utee_mask_cancellation>:
utee_mask_cancellation():
/home/rahulmahdev/devel/optee/optee_os/lib/libutee/arch/arm/utee_syscalls_asm.S:85
     7e4:	e92d40e0 	push	{r5, r6, r7, lr}
     7e8:	e3a0700c 	mov	r7, #12
     7ec:	e3a06000 	mov	r6, #0
     7f0:	ef000000 	svc	0x00000000
     7f4:	e8bd80e0 	pop	{r5, r6, r7, pc}

000007f8 <utee_wait>:
utee_wait():
/home/rahulmahdev/devel/optee/optee_os/lib/libutee/arch/arm/utee_syscalls_asm.S:87
     7f8:	e92d40e0 	push	{r5, r6, r7, lr}
     7fc:	e3a0700d 	mov	r7, #13
     800:	e3a06000 	mov	r6, #0
     804:	ef000000 	svc	0x00000000
     808:	e8bd80e0 	pop	{r5, r6, r7, pc}

0000080c <utee_get_time>:
utee_get_time():
/home/rahulmahdev/devel/optee/optee_os/lib/libutee/arch/arm/utee_syscalls_asm.S:89
     80c:	e92d40e0 	push	{r5, r6, r7, lr}
     810:	e3a0700e 	mov	r7, #14
     814:	e3a06000 	mov	r6, #0
     818:	ef000000 	svc	0x00000000
     81c:	e8bd80e0 	pop	{r5, r6, r7, pc}

00000820 <utee_set_ta_time>:
utee_set_ta_time():
/home/rahulmahdev/devel/optee/optee_os/lib/libutee/arch/arm/utee_syscalls_asm.S:91
     820:	e92d40e0 	push	{r5, r6, r7, lr}
     824:	e3a0700f 	mov	r7, #15
     828:	e3a06000 	mov	r6, #0
     82c:	ef000000 	svc	0x00000000
     830:	e8bd80e0 	pop	{r5, r6, r7, pc}

00000834 <utee_cryp_state_alloc>:
utee_cryp_state_alloc():
/home/rahulmahdev/devel/optee/optee_os/lib/libutee/arch/arm/utee_syscalls_asm.S:93
     834:	e92d40e0 	push	{r5, r6, r7, lr}
     838:	e3a07010 	mov	r7, #16
     83c:	e3a06001 	mov	r6, #1
     840:	e28d5010 	add	r5, sp, #16
     844:	ef000000 	svc	0x00000000
     848:	e8bd80e0 	pop	{r5, r6, r7, pc}

0000084c <utee_cryp_state_copy>:
utee_cryp_state_copy():
/home/rahulmahdev/devel/optee/optee_os/lib/libutee/arch/arm/utee_syscalls_asm.S:95
     84c:	e92d40e0 	push	{r5, r6, r7, lr}
     850:	e3a07011 	mov	r7, #17
     854:	e3a06000 	mov	r6, #0
     858:	ef000000 	svc	0x00000000
     85c:	e8bd80e0 	pop	{r5, r6, r7, pc}

00000860 <utee_cryp_state_free>:
utee_cryp_state_free():
/home/rahulmahdev/devel/optee/optee_os/lib/libutee/arch/arm/utee_syscalls_asm.S:97
     860:	e92d40e0 	push	{r5, r6, r7, lr}
     864:	e3a07012 	mov	r7, #18
     868:	e3a06000 	mov	r6, #0
     86c:	ef000000 	svc	0x00000000
     870:	e8bd80e0 	pop	{r5, r6, r7, pc}

00000874 <utee_hash_init>:
utee_hash_init():
/home/rahulmahdev/devel/optee/optee_os/lib/libutee/arch/arm/utee_syscalls_asm.S:99
     874:	e92d40e0 	push	{r5, r6, r7, lr}
     878:	e3a07013 	mov	r7, #19
     87c:	e3a06000 	mov	r6, #0
     880:	ef000000 	svc	0x00000000
     884:	e8bd80e0 	pop	{r5, r6, r7, pc}

00000888 <utee_hash_update>:
utee_hash_update():
/home/rahulmahdev/devel/optee/optee_os/lib/libutee/arch/arm/utee_syscalls_asm.S:101
     888:	e92d40e0 	push	{r5, r6, r7, lr}
     88c:	e3a07014 	mov	r7, #20
     890:	e3a06000 	mov	r6, #0
     894:	ef000000 	svc	0x00000000
     898:	e8bd80e0 	pop	{r5, r6, r7, pc}

0000089c <utee_hash_final>:
utee_hash_final():
/home/rahulmahdev/devel/optee/optee_os/lib/libutee/arch/arm/utee_syscalls_asm.S:103
     89c:	e92d40e0 	push	{r5, r6, r7, lr}
     8a0:	e3a07015 	mov	r7, #21
     8a4:	e3a06001 	mov	r6, #1
     8a8:	e28d5010 	add	r5, sp, #16
     8ac:	ef000000 	svc	0x00000000
     8b0:	e8bd80e0 	pop	{r5, r6, r7, pc}

000008b4 <utee_cipher_init>:
utee_cipher_init():
/home/rahulmahdev/devel/optee/optee_os/lib/libutee/arch/arm/utee_syscalls_asm.S:105
     8b4:	e92d40e0 	push	{r5, r6, r7, lr}
     8b8:	e3a07016 	mov	r7, #22
     8bc:	e3a06000 	mov	r6, #0
     8c0:	ef000000 	svc	0x00000000
     8c4:	e8bd80e0 	pop	{r5, r6, r7, pc}

000008c8 <utee_cipher_update>:
utee_cipher_update():
/home/rahulmahdev/devel/optee/optee_os/lib/libutee/arch/arm/utee_syscalls_asm.S:107
     8c8:	e92d40e0 	push	{r5, r6, r7, lr}
     8cc:	e3a07017 	mov	r7, #23
     8d0:	e3a06001 	mov	r6, #1
     8d4:	e28d5010 	add	r5, sp, #16
     8d8:	ef000000 	svc	0x00000000
     8dc:	e8bd80e0 	pop	{r5, r6, r7, pc}

000008e0 <utee_cipher_final>:
utee_cipher_final():
/home/rahulmahdev/devel/optee/optee_os/lib/libutee/arch/arm/utee_syscalls_asm.S:109
     8e0:	e92d40e0 	push	{r5, r6, r7, lr}
     8e4:	e3a07018 	mov	r7, #24
     8e8:	e3a06001 	mov	r6, #1
     8ec:	e28d5010 	add	r5, sp, #16
     8f0:	ef000000 	svc	0x00000000
     8f4:	e8bd80e0 	pop	{r5, r6, r7, pc}

000008f8 <utee_cryp_obj_get_info>:
utee_cryp_obj_get_info():
/home/rahulmahdev/devel/optee/optee_os/lib/libutee/arch/arm/utee_syscalls_asm.S:111
     8f8:	e92d40e0 	push	{r5, r6, r7, lr}
     8fc:	e3a07019 	mov	r7, #25
     900:	e3a06000 	mov	r6, #0
     904:	ef000000 	svc	0x00000000
     908:	e8bd80e0 	pop	{r5, r6, r7, pc}

0000090c <utee_cryp_obj_restrict_usage>:
utee_cryp_obj_restrict_usage():
/home/rahulmahdev/devel/optee/optee_os/lib/libutee/arch/arm/utee_syscalls_asm.S:113
     90c:	e92d40e0 	push	{r5, r6, r7, lr}
     910:	e3a0701a 	mov	r7, #26
     914:	e3a06000 	mov	r6, #0
     918:	ef000000 	svc	0x00000000
     91c:	e8bd80e0 	pop	{r5, r6, r7, pc}

00000920 <utee_cryp_obj_get_attr>:
utee_cryp_obj_get_attr():
/home/rahulmahdev/devel/optee/optee_os/lib/libutee/arch/arm/utee_syscalls_asm.S:116
     920:	e92d40e0 	push	{r5, r6, r7, lr}
     924:	e3a0701b 	mov	r7, #27
     928:	e3a06000 	mov	r6, #0
     92c:	ef000000 	svc	0x00000000
     930:	e8bd80e0 	pop	{r5, r6, r7, pc}

00000934 <utee_cryp_obj_alloc>:
utee_cryp_obj_alloc():
/home/rahulmahdev/devel/optee/optee_os/lib/libutee/arch/arm/utee_syscalls_asm.S:118
     934:	e92d40e0 	push	{r5, r6, r7, lr}
     938:	e3a0701c 	mov	r7, #28
     93c:	e3a06000 	mov	r6, #0
     940:	ef000000 	svc	0x00000000
     944:	e8bd80e0 	pop	{r5, r6, r7, pc}

00000948 <utee_cryp_obj_close>:
utee_cryp_obj_close():
/home/rahulmahdev/devel/optee/optee_os/lib/libutee/arch/arm/utee_syscalls_asm.S:120
     948:	e92d40e0 	push	{r5, r6, r7, lr}
     94c:	e3a0701d 	mov	r7, #29
     950:	e3a06000 	mov	r6, #0
     954:	ef000000 	svc	0x00000000
     958:	e8bd80e0 	pop	{r5, r6, r7, pc}

0000095c <utee_cryp_obj_reset>:
utee_cryp_obj_reset():
/home/rahulmahdev/devel/optee/optee_os/lib/libutee/arch/arm/utee_syscalls_asm.S:122
     95c:	e92d40e0 	push	{r5, r6, r7, lr}
     960:	e3a0701e 	mov	r7, #30
     964:	e3a06000 	mov	r6, #0
     968:	ef000000 	svc	0x00000000
     96c:	e8bd80e0 	pop	{r5, r6, r7, pc}

00000970 <utee_cryp_obj_populate>:
utee_cryp_obj_populate():
/home/rahulmahdev/devel/optee/optee_os/lib/libutee/arch/arm/utee_syscalls_asm.S:124
     970:	e92d40e0 	push	{r5, r6, r7, lr}
     974:	e3a0701f 	mov	r7, #31
     978:	e3a06000 	mov	r6, #0
     97c:	ef000000 	svc	0x00000000
     980:	e8bd80e0 	pop	{r5, r6, r7, pc}

00000984 <utee_cryp_obj_copy>:
utee_cryp_obj_copy():
/home/rahulmahdev/devel/optee/optee_os/lib/libutee/arch/arm/utee_syscalls_asm.S:126
     984:	e92d40e0 	push	{r5, r6, r7, lr}
     988:	e3a07020 	mov	r7, #32
     98c:	e3a06000 	mov	r6, #0
     990:	ef000000 	svc	0x00000000
     994:	e8bd80e0 	pop	{r5, r6, r7, pc}

00000998 <utee_cryp_derive_key>:
utee_cryp_derive_key():
/home/rahulmahdev/devel/optee/optee_os/lib/libutee/arch/arm/utee_syscalls_asm.S:128
     998:	e92d40e0 	push	{r5, r6, r7, lr}
     99c:	e3a07021 	mov	r7, #33	; 0x21
     9a0:	e3a06000 	mov	r6, #0
     9a4:	ef000000 	svc	0x00000000
     9a8:	e8bd80e0 	pop	{r5, r6, r7, pc}

000009ac <utee_cryp_random_number_generate>:
utee_cryp_random_number_generate():
/home/rahulmahdev/devel/optee/optee_os/lib/libutee/arch/arm/utee_syscalls_asm.S:130
     9ac:	e92d40e0 	push	{r5, r6, r7, lr}
     9b0:	e3a07022 	mov	r7, #34	; 0x22
     9b4:	e3a06000 	mov	r6, #0
     9b8:	ef000000 	svc	0x00000000
     9bc:	e8bd80e0 	pop	{r5, r6, r7, pc}

000009c0 <utee_authenc_init>:
utee_authenc_init():
/home/rahulmahdev/devel/optee/optee_os/lib/libutee/arch/arm/utee_syscalls_asm.S:133
     9c0:	e92d40e0 	push	{r5, r6, r7, lr}
     9c4:	e3a07023 	mov	r7, #35	; 0x23
     9c8:	e3a06002 	mov	r6, #2
     9cc:	e28d5010 	add	r5, sp, #16
     9d0:	ef000000 	svc	0x00000000
     9d4:	e8bd80e0 	pop	{r5, r6, r7, pc}

000009d8 <utee_authenc_update_aad>:
utee_authenc_update_aad():
/home/rahulmahdev/devel/optee/optee_os/lib/libutee/arch/arm/utee_syscalls_asm.S:135
     9d8:	e92d40e0 	push	{r5, r6, r7, lr}
     9dc:	e3a07024 	mov	r7, #36	; 0x24
     9e0:	e3a06000 	mov	r6, #0
     9e4:	ef000000 	svc	0x00000000
     9e8:	e8bd80e0 	pop	{r5, r6, r7, pc}

000009ec <utee_authenc_update_payload>:
utee_authenc_update_payload():
/home/rahulmahdev/devel/optee/optee_os/lib/libutee/arch/arm/utee_syscalls_asm.S:137
     9ec:	e92d40e0 	push	{r5, r6, r7, lr}
     9f0:	e3a07025 	mov	r7, #37	; 0x25
     9f4:	e3a06001 	mov	r6, #1
     9f8:	e28d5010 	add	r5, sp, #16
     9fc:	ef000000 	svc	0x00000000
     a00:	e8bd80e0 	pop	{r5, r6, r7, pc}

00000a04 <utee_authenc_enc_final>:
utee_authenc_enc_final():
/home/rahulmahdev/devel/optee/optee_os/lib/libutee/arch/arm/utee_syscalls_asm.S:140
     a04:	e92d40e0 	push	{r5, r6, r7, lr}
     a08:	e3a07026 	mov	r7, #38	; 0x26
     a0c:	e3a06003 	mov	r6, #3
     a10:	e28d5010 	add	r5, sp, #16
     a14:	ef000000 	svc	0x00000000
     a18:	e8bd80e0 	pop	{r5, r6, r7, pc}

00000a1c <utee_authenc_dec_final>:
utee_authenc_dec_final():
/home/rahulmahdev/devel/optee/optee_os/lib/libutee/arch/arm/utee_syscalls_asm.S:142
     a1c:	e92d40e0 	push	{r5, r6, r7, lr}
     a20:	e3a07027 	mov	r7, #39	; 0x27
     a24:	e3a06003 	mov	r6, #3
     a28:	e28d5010 	add	r5, sp, #16
     a2c:	ef000000 	svc	0x00000000
     a30:	e8bd80e0 	pop	{r5, r6, r7, pc}

00000a34 <utee_asymm_operate>:
utee_asymm_operate():
/home/rahulmahdev/devel/optee/optee_os/lib/libutee/arch/arm/utee_syscalls_asm.S:144
     a34:	e92d40e0 	push	{r5, r6, r7, lr}
     a38:	e3a07028 	mov	r7, #40	; 0x28
     a3c:	e3a06003 	mov	r6, #3
     a40:	e28d5010 	add	r5, sp, #16
     a44:	ef000000 	svc	0x00000000
     a48:	e8bd80e0 	pop	{r5, r6, r7, pc}

00000a4c <utee_asymm_verify>:
utee_asymm_verify():
/home/rahulmahdev/devel/optee/optee_os/lib/libutee/arch/arm/utee_syscalls_asm.S:146
     a4c:	e92d40e0 	push	{r5, r6, r7, lr}
     a50:	e3a07029 	mov	r7, #41	; 0x29
     a54:	e3a06003 	mov	r6, #3
     a58:	e28d5010 	add	r5, sp, #16
     a5c:	ef000000 	svc	0x00000000
     a60:	e8bd80e0 	pop	{r5, r6, r7, pc}

00000a64 <utee_storage_obj_open>:
utee_storage_obj_open():
/home/rahulmahdev/devel/optee/optee_os/lib/libutee/arch/arm/utee_syscalls_asm.S:148
     a64:	e92d40e0 	push	{r5, r6, r7, lr}
     a68:	e3a0702a 	mov	r7, #42	; 0x2a
     a6c:	e3a06001 	mov	r6, #1
     a70:	e28d5010 	add	r5, sp, #16
     a74:	ef000000 	svc	0x00000000
     a78:	e8bd80e0 	pop	{r5, r6, r7, pc}

00000a7c <utee_storage_obj_create>:
utee_storage_obj_create():
/home/rahulmahdev/devel/optee/optee_os/lib/libutee/arch/arm/utee_syscalls_asm.S:150
     a7c:	e92d40e0 	push	{r5, r6, r7, lr}
     a80:	e3a0702b 	mov	r7, #43	; 0x2b
     a84:	e3a06004 	mov	r6, #4
     a88:	e28d5010 	add	r5, sp, #16
     a8c:	ef000000 	svc	0x00000000
     a90:	e8bd80e0 	pop	{r5, r6, r7, pc}

00000a94 <utee_storage_obj_del>:
utee_storage_obj_del():
/home/rahulmahdev/devel/optee/optee_os/lib/libutee/arch/arm/utee_syscalls_asm.S:152
     a94:	e92d40e0 	push	{r5, r6, r7, lr}
     a98:	e3a0702c 	mov	r7, #44	; 0x2c
     a9c:	e3a06000 	mov	r6, #0
     aa0:	ef000000 	svc	0x00000000
     aa4:	e8bd80e0 	pop	{r5, r6, r7, pc}

00000aa8 <utee_storage_obj_rename>:
utee_storage_obj_rename():
/home/rahulmahdev/devel/optee/optee_os/lib/libutee/arch/arm/utee_syscalls_asm.S:154
     aa8:	e92d40e0 	push	{r5, r6, r7, lr}
     aac:	e3a0702d 	mov	r7, #45	; 0x2d
     ab0:	e3a06000 	mov	r6, #0
     ab4:	ef000000 	svc	0x00000000
     ab8:	e8bd80e0 	pop	{r5, r6, r7, pc}

00000abc <utee_storage_alloc_enum>:
utee_storage_alloc_enum():
/home/rahulmahdev/devel/optee/optee_os/lib/libutee/arch/arm/utee_syscalls_asm.S:156
     abc:	e92d40e0 	push	{r5, r6, r7, lr}
     ac0:	e3a0702e 	mov	r7, #46	; 0x2e
     ac4:	e3a06000 	mov	r6, #0
     ac8:	ef000000 	svc	0x00000000
     acc:	e8bd80e0 	pop	{r5, r6, r7, pc}

00000ad0 <utee_storage_free_enum>:
utee_storage_free_enum():
/home/rahulmahdev/devel/optee/optee_os/lib/libutee/arch/arm/utee_syscalls_asm.S:158
     ad0:	e92d40e0 	push	{r5, r6, r7, lr}
     ad4:	e3a0702f 	mov	r7, #47	; 0x2f
     ad8:	e3a06000 	mov	r6, #0
     adc:	ef000000 	svc	0x00000000
     ae0:	e8bd80e0 	pop	{r5, r6, r7, pc}

00000ae4 <utee_storage_reset_enum>:
utee_storage_reset_enum():
/home/rahulmahdev/devel/optee/optee_os/lib/libutee/arch/arm/utee_syscalls_asm.S:160
     ae4:	e92d40e0 	push	{r5, r6, r7, lr}
     ae8:	e3a07030 	mov	r7, #48	; 0x30
     aec:	e3a06000 	mov	r6, #0
     af0:	ef000000 	svc	0x00000000
     af4:	e8bd80e0 	pop	{r5, r6, r7, pc}

00000af8 <utee_storage_start_enum>:
utee_storage_start_enum():
/home/rahulmahdev/devel/optee/optee_os/lib/libutee/arch/arm/utee_syscalls_asm.S:162
     af8:	e92d40e0 	push	{r5, r6, r7, lr}
     afc:	e3a07031 	mov	r7, #49	; 0x31
     b00:	e3a06000 	mov	r6, #0
     b04:	ef000000 	svc	0x00000000
     b08:	e8bd80e0 	pop	{r5, r6, r7, pc}

00000b0c <utee_storage_next_enum>:
utee_storage_next_enum():
/home/rahulmahdev/devel/optee/optee_os/lib/libutee/arch/arm/utee_syscalls_asm.S:164
     b0c:	e92d40e0 	push	{r5, r6, r7, lr}
     b10:	e3a07032 	mov	r7, #50	; 0x32
     b14:	e3a06000 	mov	r6, #0
     b18:	ef000000 	svc	0x00000000
     b1c:	e8bd80e0 	pop	{r5, r6, r7, pc}

00000b20 <utee_storage_obj_read>:
utee_storage_obj_read():
/home/rahulmahdev/devel/optee/optee_os/lib/libutee/arch/arm/utee_syscalls_asm.S:166
     b20:	e92d40e0 	push	{r5, r6, r7, lr}
     b24:	e3a07033 	mov	r7, #51	; 0x33
     b28:	e3a06000 	mov	r6, #0
     b2c:	ef000000 	svc	0x00000000
     b30:	e8bd80e0 	pop	{r5, r6, r7, pc}

00000b34 <utee_storage_obj_write>:
utee_storage_obj_write():
/home/rahulmahdev/devel/optee/optee_os/lib/libutee/arch/arm/utee_syscalls_asm.S:168
     b34:	e92d40e0 	push	{r5, r6, r7, lr}
     b38:	e3a07034 	mov	r7, #52	; 0x34
     b3c:	e3a06000 	mov	r6, #0
     b40:	ef000000 	svc	0x00000000
     b44:	e8bd80e0 	pop	{r5, r6, r7, pc}

00000b48 <utee_storage_obj_trunc>:
utee_storage_obj_trunc():
/home/rahulmahdev/devel/optee/optee_os/lib/libutee/arch/arm/utee_syscalls_asm.S:170
     b48:	e92d40e0 	push	{r5, r6, r7, lr}
     b4c:	e3a07035 	mov	r7, #53	; 0x35
     b50:	e3a06000 	mov	r6, #0
     b54:	ef000000 	svc	0x00000000
     b58:	e8bd80e0 	pop	{r5, r6, r7, pc}

00000b5c <utee_storage_obj_seek>:
utee_storage_obj_seek():
/home/rahulmahdev/devel/optee/optee_os/lib/libutee/arch/arm/utee_syscalls_asm.S:172
     b5c:	e92d40e0 	push	{r5, r6, r7, lr}
     b60:	e3a07036 	mov	r7, #54	; 0x36
     b64:	e3a06000 	mov	r6, #0
     b68:	ef000000 	svc	0x00000000
     b6c:	e8bd80e0 	pop	{r5, r6, r7, pc}

00000b70 <utee_cryp_obj_generate_key>:
utee_cryp_obj_generate_key():
/home/rahulmahdev/devel/optee/optee_os/lib/libutee/arch/arm/utee_syscalls_asm.S:174
     b70:	e92d40e0 	push	{r5, r6, r7, lr}
     b74:	e3a07037 	mov	r7, #55	; 0x37
     b78:	e3a06000 	mov	r6, #0
     b7c:	ef000000 	svc	0x00000000
     b80:	e8bd80e0 	pop	{r5, r6, r7, pc}

00000b84 <utee_se_service_open>:
utee_se_service_open():
/home/rahulmahdev/devel/optee/optee_os/lib/libutee/arch/arm/utee_syscalls_asm.S:177
     b84:	e92d40e0 	push	{r5, r6, r7, lr}
     b88:	e3a07038 	mov	r7, #56	; 0x38
     b8c:	e3a06000 	mov	r6, #0
     b90:	ef000000 	svc	0x00000000
     b94:	e8bd80e0 	pop	{r5, r6, r7, pc}

00000b98 <utee_se_service_close>:
utee_se_service_close():
/home/rahulmahdev/devel/optee/optee_os/lib/libutee/arch/arm/utee_syscalls_asm.S:179
     b98:	e92d40e0 	push	{r5, r6, r7, lr}
     b9c:	e3a07039 	mov	r7, #57	; 0x39
     ba0:	e3a06000 	mov	r6, #0
     ba4:	ef000000 	svc	0x00000000
     ba8:	e8bd80e0 	pop	{r5, r6, r7, pc}

00000bac <utee_se_service_get_readers>:
utee_se_service_get_readers():
/home/rahulmahdev/devel/optee/optee_os/lib/libutee/arch/arm/utee_syscalls_asm.S:181
     bac:	e92d40e0 	push	{r5, r6, r7, lr}
     bb0:	e3a0703a 	mov	r7, #58	; 0x3a
     bb4:	e3a06000 	mov	r6, #0
     bb8:	ef000000 	svc	0x00000000
     bbc:	e8bd80e0 	pop	{r5, r6, r7, pc}

00000bc0 <utee_se_reader_get_prop>:
utee_se_reader_get_prop():
/home/rahulmahdev/devel/optee/optee_os/lib/libutee/arch/arm/utee_syscalls_asm.S:184
     bc0:	e92d40e0 	push	{r5, r6, r7, lr}
     bc4:	e3a0703b 	mov	r7, #59	; 0x3b
     bc8:	e3a06000 	mov	r6, #0
     bcc:	ef000000 	svc	0x00000000
     bd0:	e8bd80e0 	pop	{r5, r6, r7, pc}

00000bd4 <utee_se_reader_get_name>:
utee_se_reader_get_name():
/home/rahulmahdev/devel/optee/optee_os/lib/libutee/arch/arm/utee_syscalls_asm.S:187
     bd4:	e92d40e0 	push	{r5, r6, r7, lr}
     bd8:	e3a0703c 	mov	r7, #60	; 0x3c
     bdc:	e3a06000 	mov	r6, #0
     be0:	ef000000 	svc	0x00000000
     be4:	e8bd80e0 	pop	{r5, r6, r7, pc}

00000be8 <utee_se_reader_open_session>:
utee_se_reader_open_session():
/home/rahulmahdev/devel/optee/optee_os/lib/libutee/arch/arm/utee_syscalls_asm.S:190
     be8:	e92d40e0 	push	{r5, r6, r7, lr}
     bec:	e3a0703d 	mov	r7, #61	; 0x3d
     bf0:	e3a06000 	mov	r6, #0
     bf4:	ef000000 	svc	0x00000000
     bf8:	e8bd80e0 	pop	{r5, r6, r7, pc}

00000bfc <utee_se_reader_close_sessions>:
utee_se_reader_close_sessions():
/home/rahulmahdev/devel/optee/optee_os/lib/libutee/arch/arm/utee_syscalls_asm.S:193
     bfc:	e92d40e0 	push	{r5, r6, r7, lr}
     c00:	e3a0703e 	mov	r7, #62	; 0x3e
     c04:	e3a06000 	mov	r6, #0
     c08:	ef000000 	svc	0x00000000
     c0c:	e8bd80e0 	pop	{r5, r6, r7, pc}

00000c10 <utee_se_session_is_closed>:
utee_se_session_is_closed():
/home/rahulmahdev/devel/optee/optee_os/lib/libutee/arch/arm/utee_syscalls_asm.S:196
     c10:	e92d40e0 	push	{r5, r6, r7, lr}
     c14:	e3a0703f 	mov	r7, #63	; 0x3f
     c18:	e3a06000 	mov	r6, #0
     c1c:	ef000000 	svc	0x00000000
     c20:	e8bd80e0 	pop	{r5, r6, r7, pc}

00000c24 <utee_se_session_get_atr>:
utee_se_session_get_atr():
/home/rahulmahdev/devel/optee/optee_os/lib/libutee/arch/arm/utee_syscalls_asm.S:199
     c24:	e92d40e0 	push	{r5, r6, r7, lr}
     c28:	e3a07040 	mov	r7, #64	; 0x40
     c2c:	e3a06000 	mov	r6, #0
     c30:	ef000000 	svc	0x00000000
     c34:	e8bd80e0 	pop	{r5, r6, r7, pc}

00000c38 <utee_se_session_open_channel>:
utee_se_session_open_channel():
/home/rahulmahdev/devel/optee/optee_os/lib/libutee/arch/arm/utee_syscalls_asm.S:202
     c38:	e92d40e0 	push	{r5, r6, r7, lr}
     c3c:	e3a07041 	mov	r7, #65	; 0x41
     c40:	e3a06000 	mov	r6, #0
     c44:	ef000000 	svc	0x00000000
     c48:	e8bd80e0 	pop	{r5, r6, r7, pc}

00000c4c <utee_se_session_close>:
utee_se_session_close():
/home/rahulmahdev/devel/optee/optee_os/lib/libutee/arch/arm/utee_syscalls_asm.S:205
     c4c:	e92d40e0 	push	{r5, r6, r7, lr}
     c50:	e3a07042 	mov	r7, #66	; 0x42
     c54:	e3a06000 	mov	r6, #0
     c58:	ef000000 	svc	0x00000000
     c5c:	e8bd80e0 	pop	{r5, r6, r7, pc}

00000c60 <utee_se_channel_select_next>:
utee_se_channel_select_next():
/home/rahulmahdev/devel/optee/optee_os/lib/libutee/arch/arm/utee_syscalls_asm.S:208
     c60:	e92d40e0 	push	{r5, r6, r7, lr}
     c64:	e3a07043 	mov	r7, #67	; 0x43
     c68:	e3a06000 	mov	r6, #0
     c6c:	ef000000 	svc	0x00000000
     c70:	e8bd80e0 	pop	{r5, r6, r7, pc}

00000c74 <utee_se_channel_get_select_resp>:
utee_se_channel_get_select_resp():
/home/rahulmahdev/devel/optee/optee_os/lib/libutee/arch/arm/utee_syscalls_asm.S:211
     c74:	e92d40e0 	push	{r5, r6, r7, lr}
     c78:	e3a07044 	mov	r7, #68	; 0x44
     c7c:	e3a06000 	mov	r6, #0
     c80:	ef000000 	svc	0x00000000
     c84:	e8bd80e0 	pop	{r5, r6, r7, pc}

00000c88 <utee_se_channel_transmit>:
utee_se_channel_transmit():
/home/rahulmahdev/devel/optee/optee_os/lib/libutee/arch/arm/utee_syscalls_asm.S:214
     c88:	e92d40e0 	push	{r5, r6, r7, lr}
     c8c:	e3a07045 	mov	r7, #69	; 0x45
     c90:	e3a06001 	mov	r6, #1
     c94:	e28d5010 	add	r5, sp, #16
     c98:	ef000000 	svc	0x00000000
     c9c:	e8bd80e0 	pop	{r5, r6, r7, pc}

00000ca0 <utee_se_channel_close>:
utee_se_channel_close():
/home/rahulmahdev/devel/optee/optee_os/lib/libutee/arch/arm/utee_syscalls_asm.S:217
     ca0:	e92d40e0 	push	{r5, r6, r7, lr}
     ca4:	e3a07046 	mov	r7, #70	; 0x46
     ca8:	e3a06000 	mov	r6, #0
     cac:	ef000000 	svc	0x00000000
     cb0:	e8bd80e0 	pop	{r5, r6, r7, pc}

00000cb4 <utee_cache_operation>:
utee_cache_operation():
/home/rahulmahdev/devel/optee/optee_os/lib/libutee/arch/arm/utee_syscalls_asm.S:220
     cb4:	e92d40e0 	push	{r5, r6, r7, lr}
     cb8:	e3a07047 	mov	r7, #71	; 0x47
     cbc:	e3a06000 	mov	r6, #0
     cc0:	ef000000 	svc	0x00000000
     cc4:	e8bd80e0 	pop	{r5, r6, r7, pc}

00000cc8 <TEE_BigInt_Panic>:
TEE_BigInt_Panic():
/home/rahulmahdev/devel/optee/optee_os/lib/libutee/tee_api_arith.c:63
     cc8:	f84d 4d0c 	str.w	r4, [sp, #-12]!
     ccc:	e9cd 7e01 	strd	r7, lr, [sp, #4]
     cd0:	b083      	sub	sp, #12
     cd2:	af00      	add	r7, sp, #0
     cd4:	6078      	str	r0, [r7, #4]
     cd6:	4c08      	ldr	r4, [pc, #32]	; (cf8 <TEE_BigInt_Panic+0x30>)
     cd8:	447c      	add	r4, pc
/home/rahulmahdev/devel/optee/optee_os/lib/libutee/tee_api_arith.c:64
     cda:	6879      	ldr	r1, [r7, #4]
     cdc:	4b07      	ldr	r3, [pc, #28]	; (cfc <TEE_BigInt_Panic+0x34>)
     cde:	447b      	add	r3, pc
     ce0:	4618      	mov	r0, r3
     ce2:	4b07      	ldr	r3, [pc, #28]	; (d00 <TEE_BigInt_Panic+0x38>)
     ce4:	58e3      	ldr	r3, [r4, r3]
     ce6:	4798      	blx	r3
/home/rahulmahdev/devel/optee/optee_os/lib/libutee/tee_api_arith.c:65
     ce8:	f246 1027 	movw	r0, #24871	; 0x6127
     cec:	f2c0 00b1 	movt	r0, #177	; 0xb1
     cf0:	4b04      	ldr	r3, [pc, #16]	; (d04 <TEE_BigInt_Panic+0x3c>)
     cf2:	58e3      	ldr	r3, [r4, r3]
     cf4:	4798      	blx	r3
/home/rahulmahdev/devel/optee/optee_os/lib/libutee/tee_api_arith.c:67 (discriminator 1)
     cf6:	e7fe      	b.n	cf6 <TEE_BigInt_Panic+0x2e>
     cf8:	0000b864 	.word	0x0000b864
     cfc:	0000a3d2 	.word	0x0000a3d2
     d00:	00000028 	.word	0x00000028
     d04:	0000006c 	.word	0x0000006c

00000d08 <_TEE_MathAPI_Init>:
_TEE_MathAPI_Init():
/home/rahulmahdev/devel/optee/optee_os/lib/libutee/tee_api_arith.c:78
     d08:	e96d 3404 	strd	r3, r4, [sp, #-16]!
     d0c:	e9cd 7e02 	strd	r7, lr, [sp, #8]
     d10:	af00      	add	r7, sp, #0
     d12:	4c0c      	ldr	r4, [pc, #48]	; (d44 <_TEE_MathAPI_Init+0x3c>)
     d14:	447c      	add	r4, pc
/home/rahulmahdev/devel/optee/optee_os/lib/libutee/tee_api_arith.c:79
     d16:	4b0c      	ldr	r3, [pc, #48]	; (d48 <_TEE_MathAPI_Init+0x40>)
     d18:	447b      	add	r3, pc
     d1a:	681b      	ldr	r3, [r3, #0]
     d1c:	f44f 6200 	mov.w	r2, #2048	; 0x800
     d20:	f641 21d0 	movw	r1, #6864	; 0x1ad0
     d24:	4618      	mov	r0, r3
     d26:	4b09      	ldr	r3, [pc, #36]	; (d4c <_TEE_MathAPI_Init+0x44>)
     d28:	58e3      	ldr	r3, [r4, r3]
     d2a:	4798      	blx	r3
/home/rahulmahdev/devel/optee/optee_os/lib/libutee/tee_api_arith.c:81
     d2c:	4b08      	ldr	r3, [pc, #32]	; (d50 <_TEE_MathAPI_Init+0x48>)
     d2e:	58e3      	ldr	r3, [r4, r3]
     d30:	4618      	mov	r0, r3
     d32:	4b08      	ldr	r3, [pc, #32]	; (d54 <_TEE_MathAPI_Init+0x4c>)
     d34:	58e3      	ldr	r3, [r4, r3]
     d36:	4798      	blx	r3
/home/rahulmahdev/devel/optee/optee_os/lib/libutee/tee_api_arith.c:82
     d38:	46bd      	mov	sp, r7
     d3a:	e9dd 3400 	ldrd	r3, r4, [sp]
     d3e:	b002      	add	sp, #8
     d40:	bd80      	pop	{r7, pc}
     d42:	bf00      	nop
     d44:	0000b828 	.word	0x0000b828
     d48:	0000c35c 	.word	0x0000c35c
     d4c:	0000017c 	.word	0x0000017c
     d50:	0000005c 	.word	0x0000005c
     d54:	000000e0 	.word	0x000000e0

00000d58 <TEE_BigIntInit>:
TEE_BigIntInit():
/home/rahulmahdev/devel/optee/optee_os/lib/libutee/tee_api_arith.c:88
     d58:	e96d 7e02 	strd	r7, lr, [sp, #-8]!
     d5c:	b082      	sub	sp, #8
     d5e:	af00      	add	r7, sp, #0
     d60:	6078      	str	r0, [r7, #4]
     d62:	6039      	str	r1, [r7, #0]
     d64:	4a05      	ldr	r2, [pc, #20]	; (d7c <TEE_BigIntInit+0x24>)
     d66:	447a      	add	r2, pc
/home/rahulmahdev/devel/optee/optee_os/lib/libutee/tee_api_arith.c:89
     d68:	6839      	ldr	r1, [r7, #0]
     d6a:	6878      	ldr	r0, [r7, #4]
     d6c:	4b04      	ldr	r3, [pc, #16]	; (d80 <TEE_BigIntInit+0x28>)
     d6e:	58d3      	ldr	r3, [r2, r3]
     d70:	4798      	blx	r3
/home/rahulmahdev/devel/optee/optee_os/lib/libutee/tee_api_arith.c:90
     d72:	f107 0708 	add.w	r7, r7, #8
     d76:	46bd      	mov	sp, r7
     d78:	bd80      	pop	{r7, pc}
     d7a:	bf00      	nop
     d7c:	0000b7d6 	.word	0x0000b7d6
     d80:	0000000c 	.word	0x0000000c

00000d84 <TEE_BigIntInitFMM>:
TEE_BigIntInitFMM():
/home/rahulmahdev/devel/optee/optee_os/lib/libutee/tee_api_arith.c:96
     d84:	f84d 7d04 	str.w	r7, [sp, #-4]!
     d88:	b085      	sub	sp, #20
     d8a:	af00      	add	r7, sp, #0
     d8c:	6078      	str	r0, [r7, #4]
     d8e:	6039      	str	r1, [r7, #0]
/home/rahulmahdev/devel/optee/optee_os/lib/libutee/tee_api_arith.c:97
     d90:	687b      	ldr	r3, [r7, #4]
     d92:	60fb      	str	r3, [r7, #12]
/home/rahulmahdev/devel/optee/optee_os/lib/libutee/tee_api_arith.c:99
     d94:	683b      	ldr	r3, [r7, #0]
     d96:	f103 4380 	add.w	r3, r3, #1073741824	; 0x40000000
     d9a:	f1a3 0302 	sub.w	r3, r3, #2
     d9e:	ea4f 0383 	mov.w	r3, r3, lsl #2
     da2:	f103 0303 	add.w	r3, r3, #3
     da6:	ea4f 0293 	mov.w	r2, r3, lsr #2
     daa:	68fb      	ldr	r3, [r7, #12]
     dac:	601a      	str	r2, [r3, #0]
/home/rahulmahdev/devel/optee/optee_os/lib/libutee/tee_api_arith.c:100
     dae:	68fb      	ldr	r3, [r7, #12]
     db0:	f04f 0200 	mov.w	r2, #0
     db4:	605a      	str	r2, [r3, #4]
/home/rahulmahdev/devel/optee/optee_os/lib/libutee/tee_api_arith.c:101
     db6:	f107 0714 	add.w	r7, r7, #20
     dba:	46bd      	mov	sp, r7
     dbc:	f85d 7b04 	ldr.w	r7, [sp], #4
     dc0:	4770      	bx	lr
     dc2:	bf00      	nop

00000dc4 <TEE_BigIntInitFMMContext>:
TEE_BigIntInitFMMContext():
/home/rahulmahdev/devel/optee/optee_os/lib/libutee/tee_api_arith.c:108
     dc4:	e96d 4504 	strd	r4, r5, [sp, #-16]!
     dc8:	e9cd 7e02 	strd	r7, lr, [sp, #8]
     dcc:	b088      	sub	sp, #32
     dce:	af02      	add	r7, sp, #8
     dd0:	60f8      	str	r0, [r7, #12]
     dd2:	60b9      	str	r1, [r7, #8]
     dd4:	607a      	str	r2, [r7, #4]
     dd6:	4c11      	ldr	r4, [pc, #68]	; (e1c <TEE_BigIntInitFMMContext+0x58>)
     dd8:	447c      	add	r4, pc
/home/rahulmahdev/devel/optee/optee_os/lib/libutee/tee_api_arith.c:109
     dda:	68fb      	ldr	r3, [r7, #12]
     ddc:	617b      	str	r3, [r7, #20]
/home/rahulmahdev/devel/optee/optee_os/lib/libutee/tee_api_arith.c:110
     dde:	687b      	ldr	r3, [r7, #4]
     de0:	613b      	str	r3, [r7, #16]
/home/rahulmahdev/devel/optee/optee_os/lib/libutee/tee_api_arith.c:112
     de2:	68b9      	ldr	r1, [r7, #8]
     de4:	6978      	ldr	r0, [r7, #20]
     de6:	4b0e      	ldr	r3, [pc, #56]	; (e20 <TEE_BigIntInitFMMContext+0x5c>)
     de8:	58e3      	ldr	r3, [r4, r3]
     dea:	4798      	blx	r3
/home/rahulmahdev/devel/optee/optee_os/lib/libutee/tee_api_arith.c:113
     dec:	697b      	ldr	r3, [r7, #20]
     dee:	6819      	ldr	r1, [r3, #0]
     df0:	697b      	ldr	r3, [r7, #20]
     df2:	685a      	ldr	r2, [r3, #4]
     df4:	697b      	ldr	r3, [r7, #20]
     df6:	f103 0008 	add.w	r0, r3, #8
     dfa:	4b0a      	ldr	r3, [pc, #40]	; (e24 <TEE_BigIntInitFMMContext+0x60>)
     dfc:	447b      	add	r3, pc
     dfe:	681b      	ldr	r3, [r3, #0]
     e00:	9300      	str	r3, [sp, #0]
     e02:	4603      	mov	r3, r0
     e04:	6938      	ldr	r0, [r7, #16]
     e06:	4d08      	ldr	r5, [pc, #32]	; (e28 <TEE_BigIntInitFMMContext+0x64>)
     e08:	5964      	ldr	r4, [r4, r5]
     e0a:	47a0      	blx	r4
/home/rahulmahdev/devel/optee/optee_os/lib/libutee/tee_api_arith.c:116
     e0c:	f107 0718 	add.w	r7, r7, #24
     e10:	46bd      	mov	sp, r7
     e12:	e9dd 4500 	ldrd	r4, r5, [sp]
     e16:	b002      	add	sp, #8
     e18:	bd80      	pop	{r7, pc}
     e1a:	bf00      	nop
     e1c:	0000b764 	.word	0x0000b764
     e20:	00000110 	.word	0x00000110
     e24:	0000c278 	.word	0x0000c278
     e28:	000000ec 	.word	0x000000ec

00000e2c <TEE_BigIntFMMSizeInU32>:
TEE_BigIntFMMSizeInU32():
/home/rahulmahdev/devel/optee/optee_os/lib/libutee/tee_api_arith.c:126
     e2c:	f84d 7d04 	str.w	r7, [sp, #-4]!
     e30:	b083      	sub	sp, #12
     e32:	af00      	add	r7, sp, #0
     e34:	6078      	str	r0, [r7, #4]
/home/rahulmahdev/devel/optee/optee_os/lib/libutee/tee_api_arith.c:127
     e36:	687b      	ldr	r3, [r7, #4]
     e38:	f103 031f 	add.w	r3, r3, #31
     e3c:	ea4f 1353 	mov.w	r3, r3, lsr #5
     e40:	f103 0303 	add.w	r3, r3, #3
/home/rahulmahdev/devel/optee/optee_os/lib/libutee/tee_api_arith.c:128
     e44:	4618      	mov	r0, r3
     e46:	f107 070c 	add.w	r7, r7, #12
     e4a:	46bd      	mov	sp, r7
     e4c:	f85d 7b04 	ldr.w	r7, [sp], #4
     e50:	4770      	bx	lr
     e52:	bf00      	nop

00000e54 <TEE_BigIntFMMContextSizeInU32>:
TEE_BigIntFMMContextSizeInU32():
/home/rahulmahdev/devel/optee/optee_os/lib/libutee/tee_api_arith.c:134
     e54:	f84d 7d04 	str.w	r7, [sp, #-4]!
     e58:	b083      	sub	sp, #12
     e5a:	af00      	add	r7, sp, #0
     e5c:	6078      	str	r0, [r7, #4]
/home/rahulmahdev/devel/optee/optee_os/lib/libutee/tee_api_arith.c:135
     e5e:	687b      	ldr	r3, [r7, #4]
     e60:	f103 031f 	add.w	r3, r3, #31
     e64:	ea4f 1353 	mov.w	r3, r3, lsr #5
     e68:	f103 0304 	add.w	r3, r3, #4
     e6c:	ea4f 0343 	mov.w	r3, r3, lsl #1
     e70:	f103 0303 	add.w	r3, r3, #3
/home/rahulmahdev/devel/optee/optee_os/lib/libutee/tee_api_arith.c:136
     e74:	4618      	mov	r0, r3
     e76:	f107 070c 	add.w	r7, r7, #12
     e7a:	46bd      	mov	sp, r7
     e7c:	f85d 7b04 	ldr.w	r7, [sp], #4
     e80:	4770      	bx	lr
     e82:	bf00      	nop

00000e84 <TEE_BigIntConvertFromOctetString>:
TEE_BigIntConvertFromOctetString():
/home/rahulmahdev/devel/optee/optee_os/lib/libutee/tee_api_arith.c:149
     e84:	e96d 4504 	strd	r4, r5, [sp, #-16]!
     e88:	e9cd 7e02 	strd	r7, lr, [sp, #8]
     e8c:	b088      	sub	sp, #32
     e8e:	af00      	add	r7, sp, #0
     e90:	60f8      	str	r0, [r7, #12]
     e92:	60b9      	str	r1, [r7, #8]
     e94:	607a      	str	r2, [r7, #4]
     e96:	603b      	str	r3, [r7, #0]
     e98:	4c18      	ldr	r4, [pc, #96]	; (efc <TEE_BigIntConvertFromOctetString+0x78>)
     e9a:	447c      	add	r4, pc
/home/rahulmahdev/devel/optee/optee_os/lib/libutee/tee_api_arith.c:151
     e9c:	68fb      	ldr	r3, [r7, #12]
     e9e:	61bb      	str	r3, [r7, #24]
/home/rahulmahdev/devel/optee/optee_os/lib/libutee/tee_api_arith.c:152
     ea0:	683b      	ldr	r3, [r7, #0]
     ea2:	ea4f 73d3 	mov.w	r3, r3, lsr #31
     ea6:	75fb      	strb	r3, [r7, #23]
/home/rahulmahdev/devel/optee/optee_os/lib/libutee/tee_api_arith.c:154
     ea8:	7dfb      	ldrb	r3, [r7, #23]
     eaa:	687a      	ldr	r2, [r7, #4]
     eac:	68b9      	ldr	r1, [r7, #8]
     eae:	69b8      	ldr	r0, [r7, #24]
     eb0:	4d13      	ldr	r5, [pc, #76]	; (f00 <TEE_BigIntConvertFromOctetString+0x7c>)
     eb2:	5965      	ldr	r5, [r4, r5]
     eb4:	47a8      	blx	r5
     eb6:	4603      	mov	r3, r0
     eb8:	2b00      	cmp	r3, #0
     eba:	d005      	beq.n	ec8 <TEE_BigIntConvertFromOctetString+0x44>
/home/rahulmahdev/devel/optee/optee_os/lib/libutee/tee_api_arith.c:155
     ebc:	f243 030f 	movw	r3, #12303	; 0x300f
     ec0:	f6cf 73ff 	movt	r3, #65535	; 0xffff
     ec4:	61fb      	str	r3, [r7, #28]
     ec6:	e002      	b.n	ece <TEE_BigIntConvertFromOctetString+0x4a>
/home/rahulmahdev/devel/optee/optee_os/lib/libutee/tee_api_arith.c:157
     ec8:	f04f 0300 	mov.w	r3, #0
     ecc:	61fb      	str	r3, [r7, #28]
/home/rahulmahdev/devel/optee/optee_os/lib/libutee/tee_api_arith.c:159
     ece:	69fb      	ldr	r3, [r7, #28]
     ed0:	2b00      	cmp	r3, #0
     ed2:	d00a      	beq.n	eea <TEE_BigIntConvertFromOctetString+0x66>
/home/rahulmahdev/devel/optee/optee_os/lib/libutee/tee_api_arith.c:159 (discriminator 1)
     ed4:	69fa      	ldr	r2, [r7, #28]
     ed6:	f243 030f 	movw	r3, #12303	; 0x300f
     eda:	f6cf 73ff 	movt	r3, #65535	; 0xffff
     ede:	429a      	cmp	r2, r3
     ee0:	d003      	beq.n	eea <TEE_BigIntConvertFromOctetString+0x66>
/home/rahulmahdev/devel/optee/optee_os/lib/libutee/tee_api_arith.c:161
     ee2:	69f8      	ldr	r0, [r7, #28]
     ee4:	4b07      	ldr	r3, [pc, #28]	; (f04 <TEE_BigIntConvertFromOctetString+0x80>)
     ee6:	58e3      	ldr	r3, [r4, r3]
     ee8:	4798      	blx	r3
/home/rahulmahdev/devel/optee/optee_os/lib/libutee/tee_api_arith.c:163
     eea:	69fb      	ldr	r3, [r7, #28]
/home/rahulmahdev/devel/optee/optee_os/lib/libutee/tee_api_arith.c:164
     eec:	4618      	mov	r0, r3
     eee:	f107 0720 	add.w	r7, r7, #32
     ef2:	46bd      	mov	sp, r7
     ef4:	e9dd 4500 	ldrd	r4, r5, [sp]
     ef8:	b002      	add	sp, #8
     efa:	bd80      	pop	{r7, pc}
     efc:	0000b6a2 	.word	0x0000b6a2
     f00:	000000b8 	.word	0x000000b8
     f04:	0000006c 	.word	0x0000006c

00000f08 <TEE_BigIntConvertToOctetString>:
TEE_BigIntConvertToOctetString():
/home/rahulmahdev/devel/optee/optee_os/lib/libutee/tee_api_arith.c:172
     f08:	f84d 4d0c 	str.w	r4, [sp, #-12]!
     f0c:	e9cd 7e01 	strd	r7, lr, [sp, #4]
     f10:	b089      	sub	sp, #36	; 0x24
     f12:	af00      	add	r7, sp, #0
     f14:	60f8      	str	r0, [r7, #12]
     f16:	60b9      	str	r1, [r7, #8]
     f18:	607a      	str	r2, [r7, #4]
     f1a:	4c1b      	ldr	r4, [pc, #108]	; (f88 <TEE_BigIntConvertToOctetString+0x80>)
     f1c:	447c      	add	r4, pc
/home/rahulmahdev/devel/optee/optee_os/lib/libutee/tee_api_arith.c:173
     f1e:	687b      	ldr	r3, [r7, #4]
     f20:	61bb      	str	r3, [r7, #24]
/home/rahulmahdev/devel/optee/optee_os/lib/libutee/tee_api_arith.c:174
     f22:	68bb      	ldr	r3, [r7, #8]
     f24:	681b      	ldr	r3, [r3, #0]
     f26:	617b      	str	r3, [r7, #20]
/home/rahulmahdev/devel/optee/optee_os/lib/libutee/tee_api_arith.c:177
     f28:	f107 0314 	add.w	r3, r7, #20
     f2c:	69ba      	ldr	r2, [r7, #24]
     f2e:	4619      	mov	r1, r3
     f30:	68f8      	ldr	r0, [r7, #12]
     f32:	4b16      	ldr	r3, [pc, #88]	; (f8c <TEE_BigIntConvertToOctetString+0x84>)
     f34:	58e3      	ldr	r3, [r4, r3]
     f36:	4798      	blx	r3
     f38:	4603      	mov	r3, r0
     f3a:	2b00      	cmp	r3, #0
     f3c:	d005      	beq.n	f4a <TEE_BigIntConvertToOctetString+0x42>
/home/rahulmahdev/devel/optee/optee_os/lib/libutee/tee_api_arith.c:178
     f3e:	f04f 0310 	mov.w	r3, #16
     f42:	f6cf 73ff 	movt	r3, #65535	; 0xffff
     f46:	61fb      	str	r3, [r7, #28]
     f48:	e002      	b.n	f50 <TEE_BigIntConvertToOctetString+0x48>
/home/rahulmahdev/devel/optee/optee_os/lib/libutee/tee_api_arith.c:180
     f4a:	f04f 0300 	mov.w	r3, #0
     f4e:	61fb      	str	r3, [r7, #28]
/home/rahulmahdev/devel/optee/optee_os/lib/libutee/tee_api_arith.c:182
     f50:	697a      	ldr	r2, [r7, #20]
     f52:	68bb      	ldr	r3, [r7, #8]
     f54:	601a      	str	r2, [r3, #0]
/home/rahulmahdev/devel/optee/optee_os/lib/libutee/tee_api_arith.c:184
     f56:	69fb      	ldr	r3, [r7, #28]
     f58:	2b00      	cmp	r3, #0
     f5a:	d00a      	beq.n	f72 <TEE_BigIntConvertToOctetString+0x6a>
/home/rahulmahdev/devel/optee/optee_os/lib/libutee/tee_api_arith.c:184 (discriminator 1)
     f5c:	69fa      	ldr	r2, [r7, #28]
     f5e:	f04f 0310 	mov.w	r3, #16
     f62:	f6cf 73ff 	movt	r3, #65535	; 0xffff
     f66:	429a      	cmp	r2, r3
     f68:	d003      	beq.n	f72 <TEE_BigIntConvertToOctetString+0x6a>
/home/rahulmahdev/devel/optee/optee_os/lib/libutee/tee_api_arith.c:186
     f6a:	69f8      	ldr	r0, [r7, #28]
     f6c:	4b08      	ldr	r3, [pc, #32]	; (f90 <TEE_BigIntConvertToOctetString+0x88>)
     f6e:	58e3      	ldr	r3, [r4, r3]
     f70:	4798      	blx	r3
/home/rahulmahdev/devel/optee/optee_os/lib/libutee/tee_api_arith.c:188
     f72:	69fb      	ldr	r3, [r7, #28]
/home/rahulmahdev/devel/optee/optee_os/lib/libutee/tee_api_arith.c:189
     f74:	4618      	mov	r0, r3
     f76:	f107 0724 	add.w	r7, r7, #36	; 0x24
     f7a:	46bd      	mov	sp, r7
     f7c:	e9dd 4700 	ldrd	r4, r7, [sp]
     f80:	b002      	add	sp, #8
     f82:	f85d fb04 	ldr.w	pc, [sp], #4
     f86:	bf00      	nop
     f88:	0000b620 	.word	0x0000b620
     f8c:	00000160 	.word	0x00000160
     f90:	0000006c 	.word	0x0000006c

00000f94 <TEE_BigIntConvertFromS32>:
TEE_BigIntConvertFromS32():
/home/rahulmahdev/devel/optee/optee_os/lib/libutee/tee_api_arith.c:195
     f94:	e96d 7e02 	strd	r7, lr, [sp, #-8]!
     f98:	b084      	sub	sp, #16
     f9a:	af00      	add	r7, sp, #0
     f9c:	6078      	str	r0, [r7, #4]
     f9e:	6039      	str	r1, [r7, #0]
     fa0:	4a06      	ldr	r2, [pc, #24]	; (fbc <TEE_BigIntConvertFromS32+0x28>)
     fa2:	447a      	add	r2, pc
/home/rahulmahdev/devel/optee/optee_os/lib/libutee/tee_api_arith.c:196
     fa4:	687b      	ldr	r3, [r7, #4]
     fa6:	60fb      	str	r3, [r7, #12]
/home/rahulmahdev/devel/optee/optee_os/lib/libutee/tee_api_arith.c:199
     fa8:	6839      	ldr	r1, [r7, #0]
     faa:	68f8      	ldr	r0, [r7, #12]
     fac:	4b04      	ldr	r3, [pc, #16]	; (fc0 <TEE_BigIntConvertFromS32+0x2c>)
     fae:	58d3      	ldr	r3, [r2, r3]
     fb0:	4798      	blx	r3
/home/rahulmahdev/devel/optee/optee_os/lib/libutee/tee_api_arith.c:203
     fb2:	f107 0710 	add.w	r7, r7, #16
     fb6:	46bd      	mov	sp, r7
     fb8:	bd80      	pop	{r7, pc}
     fba:	bf00      	nop
     fbc:	0000b59a 	.word	0x0000b59a
     fc0:	0000010c 	.word	0x0000010c

00000fc4 <TEE_BigIntConvertToS32>:
TEE_BigIntConvertToS32():
/home/rahulmahdev/devel/optee/optee_os/lib/libutee/tee_api_arith.c:209
     fc4:	f84d 4d0c 	str.w	r4, [sp, #-12]!
     fc8:	e9cd 7e01 	strd	r7, lr, [sp, #4]
     fcc:	b085      	sub	sp, #20
     fce:	af00      	add	r7, sp, #0
     fd0:	6078      	str	r0, [r7, #4]
     fd2:	6039      	str	r1, [r7, #0]
     fd4:	4c16      	ldr	r4, [pc, #88]	; (1030 <TEE_BigIntConvertToS32+0x6c>)
     fd6:	447c      	add	r4, pc
/home/rahulmahdev/devel/optee/optee_os/lib/libutee/tee_api_arith.c:211
     fd8:	683b      	ldr	r3, [r7, #0]
     fda:	60bb      	str	r3, [r7, #8]
/home/rahulmahdev/devel/optee/optee_os/lib/libutee/tee_api_arith.c:213
     fdc:	68b9      	ldr	r1, [r7, #8]
     fde:	6878      	ldr	r0, [r7, #4]
     fe0:	4b14      	ldr	r3, [pc, #80]	; (1034 <TEE_BigIntConvertToS32+0x70>)
     fe2:	58e3      	ldr	r3, [r4, r3]
     fe4:	4798      	blx	r3
     fe6:	4603      	mov	r3, r0
     fe8:	2b00      	cmp	r3, #0
     fea:	d103      	bne.n	ff4 <TEE_BigIntConvertToS32+0x30>
/home/rahulmahdev/devel/optee/optee_os/lib/libutee/tee_api_arith.c:214
     fec:	f04f 0300 	mov.w	r3, #0
     ff0:	60fb      	str	r3, [r7, #12]
     ff2:	e004      	b.n	ffe <TEE_BigIntConvertToS32+0x3a>
/home/rahulmahdev/devel/optee/optee_os/lib/libutee/tee_api_arith.c:216
     ff4:	f243 030f 	movw	r3, #12303	; 0x300f
     ff8:	f6cf 73ff 	movt	r3, #65535	; 0xffff
     ffc:	60fb      	str	r3, [r7, #12]
/home/rahulmahdev/devel/optee/optee_os/lib/libutee/tee_api_arith.c:218
     ffe:	68fb      	ldr	r3, [r7, #12]
    1000:	2b00      	cmp	r3, #0
    1002:	d00a      	beq.n	101a <TEE_BigIntConvertToS32+0x56>
/home/rahulmahdev/devel/optee/optee_os/lib/libutee/tee_api_arith.c:218 (discriminator 1)
    1004:	68fa      	ldr	r2, [r7, #12]
    1006:	f243 030f 	movw	r3, #12303	; 0x300f
    100a:	f6cf 73ff 	movt	r3, #65535	; 0xffff
    100e:	429a      	cmp	r2, r3
    1010:	d003      	beq.n	101a <TEE_BigIntConvertToS32+0x56>
/home/rahulmahdev/devel/optee/optee_os/lib/libutee/tee_api_arith.c:220
    1012:	68f8      	ldr	r0, [r7, #12]
    1014:	4b08      	ldr	r3, [pc, #32]	; (1038 <TEE_BigIntConvertToS32+0x74>)
    1016:	58e3      	ldr	r3, [r4, r3]
    1018:	4798      	blx	r3
/home/rahulmahdev/devel/optee/optee_os/lib/libutee/tee_api_arith.c:222
    101a:	68fb      	ldr	r3, [r7, #12]
/home/rahulmahdev/devel/optee/optee_os/lib/libutee/tee_api_arith.c:223
    101c:	4618      	mov	r0, r3
    101e:	f107 0714 	add.w	r7, r7, #20
    1022:	46bd      	mov	sp, r7
    1024:	e9dd 4700 	ldrd	r4, r7, [sp]
    1028:	b002      	add	sp, #8
    102a:	f85d fb04 	ldr.w	pc, [sp], #4
    102e:	bf00      	nop
    1030:	0000b566 	.word	0x0000b566
    1034:	00000014 	.word	0x00000014
    1038:	0000006c 	.word	0x0000006c

0000103c <TEE_BigIntCmp>:
TEE_BigIntCmp():
/home/rahulmahdev/devel/optee/optee_os/lib/libutee/tee_api_arith.c:233
    103c:	e96d 7e02 	strd	r7, lr, [sp, #-8]!
    1040:	b084      	sub	sp, #16
    1042:	af00      	add	r7, sp, #0
    1044:	6078      	str	r0, [r7, #4]
    1046:	6039      	str	r1, [r7, #0]
    1048:	4a08      	ldr	r2, [pc, #32]	; (106c <TEE_BigIntCmp+0x30>)
    104a:	447a      	add	r2, pc
/home/rahulmahdev/devel/optee/optee_os/lib/libutee/tee_api_arith.c:234
    104c:	687b      	ldr	r3, [r7, #4]
    104e:	60fb      	str	r3, [r7, #12]
/home/rahulmahdev/devel/optee/optee_os/lib/libutee/tee_api_arith.c:235
    1050:	683b      	ldr	r3, [r7, #0]
    1052:	60bb      	str	r3, [r7, #8]
/home/rahulmahdev/devel/optee/optee_os/lib/libutee/tee_api_arith.c:237
    1054:	68b9      	ldr	r1, [r7, #8]
    1056:	68f8      	ldr	r0, [r7, #12]
    1058:	4b05      	ldr	r3, [pc, #20]	; (1070 <TEE_BigIntCmp+0x34>)
    105a:	58d3      	ldr	r3, [r2, r3]
    105c:	4798      	blx	r3
    105e:	4603      	mov	r3, r0
/home/rahulmahdev/devel/optee/optee_os/lib/libutee/tee_api_arith.c:238
    1060:	4618      	mov	r0, r3
    1062:	f107 0710 	add.w	r7, r7, #16
    1066:	46bd      	mov	sp, r7
    1068:	bd80      	pop	{r7, pc}
    106a:	bf00      	nop
    106c:	0000b4f2 	.word	0x0000b4f2
    1070:	00000120 	.word	0x00000120

00001074 <TEE_BigIntCmpS32>:
TEE_BigIntCmpS32():
/home/rahulmahdev/devel/optee/optee_os/lib/libutee/tee_api_arith.c:244
    1074:	e96d 7e02 	strd	r7, lr, [sp, #-8]!
    1078:	b084      	sub	sp, #16
    107a:	af00      	add	r7, sp, #0
    107c:	6078      	str	r0, [r7, #4]
    107e:	6039      	str	r1, [r7, #0]
    1080:	4a07      	ldr	r2, [pc, #28]	; (10a0 <TEE_BigIntCmpS32+0x2c>)
    1082:	447a      	add	r2, pc
/home/rahulmahdev/devel/optee/optee_os/lib/libutee/tee_api_arith.c:245
    1084:	687b      	ldr	r3, [r7, #4]
    1086:	60fb      	str	r3, [r7, #12]
/home/rahulmahdev/devel/optee/optee_os/lib/libutee/tee_api_arith.c:247
    1088:	6839      	ldr	r1, [r7, #0]
    108a:	68f8      	ldr	r0, [r7, #12]
    108c:	4b05      	ldr	r3, [pc, #20]	; (10a4 <TEE_BigIntCmpS32+0x30>)
    108e:	58d3      	ldr	r3, [r2, r3]
    1090:	4798      	blx	r3
    1092:	4603      	mov	r3, r0
/home/rahulmahdev/devel/optee/optee_os/lib/libutee/tee_api_arith.c:248
    1094:	4618      	mov	r0, r3
    1096:	f107 0710 	add.w	r7, r7, #16
    109a:	46bd      	mov	sp, r7
    109c:	bd80      	pop	{r7, pc}
    109e:	bf00      	nop
    10a0:	0000b4ba 	.word	0x0000b4ba
    10a4:	00000164 	.word	0x00000164

000010a8 <TEE_BigIntShiftRight>:
TEE_BigIntShiftRight():
/home/rahulmahdev/devel/optee/optee_os/lib/libutee/tee_api_arith.c:255
    10a8:	f84d 4d0c 	str.w	r4, [sp, #-12]!
    10ac:	e9cd 7e01 	strd	r7, lr, [sp, #4]
    10b0:	b087      	sub	sp, #28
    10b2:	af00      	add	r7, sp, #0
    10b4:	60f8      	str	r0, [r7, #12]
    10b6:	60b9      	str	r1, [r7, #8]
    10b8:	607a      	str	r2, [r7, #4]
    10ba:	4c0a      	ldr	r4, [pc, #40]	; (10e4 <TEE_BigIntShiftRight+0x3c>)
    10bc:	447c      	add	r4, pc
/home/rahulmahdev/devel/optee/optee_os/lib/libutee/tee_api_arith.c:256
    10be:	68fb      	ldr	r3, [r7, #12]
    10c0:	617b      	str	r3, [r7, #20]
/home/rahulmahdev/devel/optee/optee_os/lib/libutee/tee_api_arith.c:257
    10c2:	68bb      	ldr	r3, [r7, #8]
    10c4:	613b      	str	r3, [r7, #16]
/home/rahulmahdev/devel/optee/optee_os/lib/libutee/tee_api_arith.c:259
    10c6:	687a      	ldr	r2, [r7, #4]
    10c8:	6939      	ldr	r1, [r7, #16]
    10ca:	6978      	ldr	r0, [r7, #20]
    10cc:	4b06      	ldr	r3, [pc, #24]	; (10e8 <TEE_BigIntShiftRight+0x40>)
    10ce:	58e3      	ldr	r3, [r4, r3]
    10d0:	4798      	blx	r3
/home/rahulmahdev/devel/optee/optee_os/lib/libutee/tee_api_arith.c:260
    10d2:	f107 071c 	add.w	r7, r7, #28
    10d6:	46bd      	mov	sp, r7
    10d8:	e9dd 4700 	ldrd	r4, r7, [sp]
    10dc:	b002      	add	sp, #8
    10de:	f85d fb04 	ldr.w	pc, [sp], #4
    10e2:	bf00      	nop
    10e4:	0000b480 	.word	0x0000b480
    10e8:	00000158 	.word	0x00000158

000010ec <TEE_BigIntGetBit>:
TEE_BigIntGetBit():
/home/rahulmahdev/devel/optee/optee_os/lib/libutee/tee_api_arith.c:266
    10ec:	e96d 7e02 	strd	r7, lr, [sp, #-8]!
    10f0:	b084      	sub	sp, #16
    10f2:	af00      	add	r7, sp, #0
    10f4:	6078      	str	r0, [r7, #4]
    10f6:	6039      	str	r1, [r7, #0]
    10f8:	4a09      	ldr	r2, [pc, #36]	; (1120 <TEE_BigIntGetBit+0x34>)
    10fa:	447a      	add	r2, pc
/home/rahulmahdev/devel/optee/optee_os/lib/libutee/tee_api_arith.c:267
    10fc:	687b      	ldr	r3, [r7, #4]
    10fe:	60fb      	str	r3, [r7, #12]
/home/rahulmahdev/devel/optee/optee_os/lib/libutee/tee_api_arith.c:269
    1100:	6839      	ldr	r1, [r7, #0]
    1102:	68f8      	ldr	r0, [r7, #12]
    1104:	4b07      	ldr	r3, [pc, #28]	; (1124 <TEE_BigIntGetBit+0x38>)
    1106:	58d3      	ldr	r3, [r2, r3]
    1108:	4798      	blx	r3
    110a:	4603      	mov	r3, r0
    110c:	2b00      	cmp	r3, #0
    110e:	bf14      	ite	ne
    1110:	2301      	movne	r3, #1
    1112:	2300      	moveq	r3, #0
    1114:	b2db      	uxtb	r3, r3
/home/rahulmahdev/devel/optee/optee_os/lib/libutee/tee_api_arith.c:270
    1116:	4618      	mov	r0, r3
    1118:	f107 0710 	add.w	r7, r7, #16
    111c:	46bd      	mov	sp, r7
    111e:	bd80      	pop	{r7, pc}
    1120:	0000b442 	.word	0x0000b442
    1124:	00000178 	.word	0x00000178

00001128 <TEE_BigIntGetBitCount>:
TEE_BigIntGetBitCount():
/home/rahulmahdev/devel/optee/optee_os/lib/libutee/tee_api_arith.c:276
    1128:	e96d 7e02 	strd	r7, lr, [sp, #-8]!
    112c:	b084      	sub	sp, #16
    112e:	af00      	add	r7, sp, #0
    1130:	6078      	str	r0, [r7, #4]
    1132:	4a08      	ldr	r2, [pc, #32]	; (1154 <TEE_BigIntGetBitCount+0x2c>)
    1134:	447a      	add	r2, pc
/home/rahulmahdev/devel/optee/optee_os/lib/libutee/tee_api_arith.c:277
    1136:	687b      	ldr	r3, [r7, #4]
    1138:	60fb      	str	r3, [r7, #12]
/home/rahulmahdev/devel/optee/optee_os/lib/libutee/tee_api_arith.c:279
    113a:	68f8      	ldr	r0, [r7, #12]
    113c:	4b06      	ldr	r3, [pc, #24]	; (1158 <TEE_BigIntGetBitCount+0x30>)
    113e:	58d3      	ldr	r3, [r2, r3]
    1140:	4798      	blx	r3
    1142:	4603      	mov	r3, r0
    1144:	f103 0301 	add.w	r3, r3, #1
/home/rahulmahdev/devel/optee/optee_os/lib/libutee/tee_api_arith.c:280
    1148:	4618      	mov	r0, r3
    114a:	f107 0710 	add.w	r7, r7, #16
    114e:	46bd      	mov	sp, r7
    1150:	bd80      	pop	{r7, pc}
    1152:	bf00      	nop
    1154:	0000b408 	.word	0x0000b408
    1158:	00000018 	.word	0x00000018

0000115c <TEE_BigIntAdd>:
TEE_BigIntAdd():
/home/rahulmahdev/devel/optee/optee_os/lib/libutee/tee_api_arith.c:291
    115c:	e96d 4504 	strd	r4, r5, [sp, #-16]!
    1160:	e9cd 7e02 	strd	r7, lr, [sp, #8]
    1164:	b088      	sub	sp, #32
    1166:	af00      	add	r7, sp, #0
    1168:	60f8      	str	r0, [r7, #12]
    116a:	60b9      	str	r1, [r7, #8]
    116c:	607a      	str	r2, [r7, #4]
    116e:	4d0c      	ldr	r5, [pc, #48]	; (11a0 <TEE_BigIntAdd+0x44>)
    1170:	447d      	add	r5, pc
/home/rahulmahdev/devel/optee/optee_os/lib/libutee/tee_api_arith.c:292
    1172:	68fb      	ldr	r3, [r7, #12]
    1174:	61fb      	str	r3, [r7, #28]
/home/rahulmahdev/devel/optee/optee_os/lib/libutee/tee_api_arith.c:293
    1176:	68bb      	ldr	r3, [r7, #8]
    1178:	61bb      	str	r3, [r7, #24]
/home/rahulmahdev/devel/optee/optee_os/lib/libutee/tee_api_arith.c:294
    117a:	687b      	ldr	r3, [r7, #4]
    117c:	617b      	str	r3, [r7, #20]
/home/rahulmahdev/devel/optee/optee_os/lib/libutee/tee_api_arith.c:296
    117e:	4b09      	ldr	r3, [pc, #36]	; (11a4 <TEE_BigIntAdd+0x48>)
    1180:	447b      	add	r3, pc
    1182:	681b      	ldr	r3, [r3, #0]
    1184:	697a      	ldr	r2, [r7, #20]
    1186:	69b9      	ldr	r1, [r7, #24]
    1188:	69f8      	ldr	r0, [r7, #28]
    118a:	4c07      	ldr	r4, [pc, #28]	; (11a8 <TEE_BigIntAdd+0x4c>)
    118c:	592c      	ldr	r4, [r5, r4]
    118e:	47a0      	blx	r4
/home/rahulmahdev/devel/optee/optee_os/lib/libutee/tee_api_arith.c:297
    1190:	f107 0720 	add.w	r7, r7, #32
    1194:	46bd      	mov	sp, r7
    1196:	e9dd 4500 	ldrd	r4, r5, [sp]
    119a:	b002      	add	sp, #8
    119c:	bd80      	pop	{r7, pc}
    119e:	bf00      	nop
    11a0:	0000b3cc 	.word	0x0000b3cc
    11a4:	0000bef4 	.word	0x0000bef4
    11a8:	00000130 	.word	0x00000130

000011ac <TEE_BigIntSub>:
TEE_BigIntSub():
/home/rahulmahdev/devel/optee/optee_os/lib/libutee/tee_api_arith.c:304
    11ac:	e96d 4504 	strd	r4, r5, [sp, #-16]!
    11b0:	e9cd 7e02 	strd	r7, lr, [sp, #8]
    11b4:	b088      	sub	sp, #32
    11b6:	af00      	add	r7, sp, #0
    11b8:	60f8      	str	r0, [r7, #12]
    11ba:	60b9      	str	r1, [r7, #8]
    11bc:	607a      	str	r2, [r7, #4]
    11be:	4d0c      	ldr	r5, [pc, #48]	; (11f0 <TEE_BigIntSub+0x44>)
    11c0:	447d      	add	r5, pc
/home/rahulmahdev/devel/optee/optee_os/lib/libutee/tee_api_arith.c:305
    11c2:	68fb      	ldr	r3, [r7, #12]
    11c4:	61fb      	str	r3, [r7, #28]
/home/rahulmahdev/devel/optee/optee_os/lib/libutee/tee_api_arith.c:306
    11c6:	68bb      	ldr	r3, [r7, #8]
    11c8:	61bb      	str	r3, [r7, #24]
/home/rahulmahdev/devel/optee/optee_os/lib/libutee/tee_api_arith.c:307
    11ca:	687b      	ldr	r3, [r7, #4]
    11cc:	617b      	str	r3, [r7, #20]
/home/rahulmahdev/devel/optee/optee_os/lib/libutee/tee_api_arith.c:309
    11ce:	4b09      	ldr	r3, [pc, #36]	; (11f4 <TEE_BigIntSub+0x48>)
    11d0:	447b      	add	r3, pc
    11d2:	681b      	ldr	r3, [r3, #0]
    11d4:	697a      	ldr	r2, [r7, #20]
    11d6:	69b9      	ldr	r1, [r7, #24]
    11d8:	69f8      	ldr	r0, [r7, #28]
    11da:	4c07      	ldr	r4, [pc, #28]	; (11f8 <TEE_BigIntSub+0x4c>)
    11dc:	592c      	ldr	r4, [r5, r4]
    11de:	47a0      	blx	r4
/home/rahulmahdev/devel/optee/optee_os/lib/libutee/tee_api_arith.c:310
    11e0:	f107 0720 	add.w	r7, r7, #32
    11e4:	46bd      	mov	sp, r7
    11e6:	e9dd 4500 	ldrd	r4, r5, [sp]
    11ea:	b002      	add	sp, #8
    11ec:	bd80      	pop	{r7, pc}
    11ee:	bf00      	nop
    11f0:	0000b37c 	.word	0x0000b37c
    11f4:	0000bea4 	.word	0x0000bea4
    11f8:	00000024 	.word	0x00000024

000011fc <TEE_BigIntNeg>:
TEE_BigIntNeg():
/home/rahulmahdev/devel/optee/optee_os/lib/libutee/tee_api_arith.c:316
    11fc:	e96d 7e02 	strd	r7, lr, [sp, #-8]!
    1200:	b084      	sub	sp, #16
    1202:	af00      	add	r7, sp, #0
    1204:	6078      	str	r0, [r7, #4]
    1206:	6039      	str	r1, [r7, #0]
    1208:	4a07      	ldr	r2, [pc, #28]	; (1228 <TEE_BigIntNeg+0x2c>)
    120a:	447a      	add	r2, pc
/home/rahulmahdev/devel/optee/optee_os/lib/libutee/tee_api_arith.c:317
    120c:	687b      	ldr	r3, [r7, #4]
    120e:	60fb      	str	r3, [r7, #12]
/home/rahulmahdev/devel/optee/optee_os/lib/libutee/tee_api_arith.c:318
    1210:	683b      	ldr	r3, [r7, #0]
    1212:	60bb      	str	r3, [r7, #8]
/home/rahulmahdev/devel/optee/optee_os/lib/libutee/tee_api_arith.c:320
    1214:	68b9      	ldr	r1, [r7, #8]
    1216:	68f8      	ldr	r0, [r7, #12]
    1218:	4b04      	ldr	r3, [pc, #16]	; (122c <TEE_BigIntNeg+0x30>)
    121a:	58d3      	ldr	r3, [r2, r3]
    121c:	4798      	blx	r3
/home/rahulmahdev/devel/optee/optee_os/lib/libutee/tee_api_arith.c:321
    121e:	f107 0710 	add.w	r7, r7, #16
    1222:	46bd      	mov	sp, r7
    1224:	bd80      	pop	{r7, pc}
    1226:	bf00      	nop
    1228:	0000b332 	.word	0x0000b332
    122c:	000000d0 	.word	0x000000d0

00001230 <TEE_BigIntMul>:
TEE_BigIntMul():
/home/rahulmahdev/devel/optee/optee_os/lib/libutee/tee_api_arith.c:328
    1230:	e96d 4504 	strd	r4, r5, [sp, #-16]!
    1234:	e9cd 7e02 	strd	r7, lr, [sp, #8]
    1238:	b088      	sub	sp, #32
    123a:	af00      	add	r7, sp, #0
    123c:	60f8      	str	r0, [r7, #12]
    123e:	60b9      	str	r1, [r7, #8]
    1240:	607a      	str	r2, [r7, #4]
    1242:	4d0c      	ldr	r5, [pc, #48]	; (1274 <TEE_BigIntMul+0x44>)
    1244:	447d      	add	r5, pc
/home/rahulmahdev/devel/optee/optee_os/lib/libutee/tee_api_arith.c:329
    1246:	68fb      	ldr	r3, [r7, #12]
    1248:	61fb      	str	r3, [r7, #28]
/home/rahulmahdev/devel/optee/optee_os/lib/libutee/tee_api_arith.c:330
    124a:	68bb      	ldr	r3, [r7, #8]
    124c:	61bb      	str	r3, [r7, #24]
/home/rahulmahdev/devel/optee/optee_os/lib/libutee/tee_api_arith.c:331
    124e:	687b      	ldr	r3, [r7, #4]
    1250:	617b      	str	r3, [r7, #20]
/home/rahulmahdev/devel/optee/optee_os/lib/libutee/tee_api_arith.c:333
    1252:	4b09      	ldr	r3, [pc, #36]	; (1278 <TEE_BigIntMul+0x48>)
    1254:	447b      	add	r3, pc
    1256:	681b      	ldr	r3, [r3, #0]
    1258:	697a      	ldr	r2, [r7, #20]
    125a:	69b9      	ldr	r1, [r7, #24]
    125c:	69f8      	ldr	r0, [r7, #28]
    125e:	4c07      	ldr	r4, [pc, #28]	; (127c <TEE_BigIntMul+0x4c>)
    1260:	592c      	ldr	r4, [r5, r4]
    1262:	47a0      	blx	r4
/home/rahulmahdev/devel/optee/optee_os/lib/libutee/tee_api_arith.c:334
    1264:	f107 0720 	add.w	r7, r7, #32
    1268:	46bd      	mov	sp, r7
    126a:	e9dd 4500 	ldrd	r4, r5, [sp]
    126e:	b002      	add	sp, #8
    1270:	bd80      	pop	{r7, pc}
    1272:	bf00      	nop
    1274:	0000b2f8 	.word	0x0000b2f8
    1278:	0000be20 	.word	0x0000be20
    127c:	0000007c 	.word	0x0000007c

00001280 <TEE_BigIntSquare>:
TEE_BigIntSquare():
/home/rahulmahdev/devel/optee/optee_os/lib/libutee/tee_api_arith.c:340
    1280:	e96d 4504 	strd	r4, r5, [sp, #-16]!
    1284:	e9cd 7e02 	strd	r7, lr, [sp, #8]
    1288:	b084      	sub	sp, #16
    128a:	af00      	add	r7, sp, #0
    128c:	6078      	str	r0, [r7, #4]
    128e:	6039      	str	r1, [r7, #0]
    1290:	4d0a      	ldr	r5, [pc, #40]	; (12bc <TEE_BigIntSquare+0x3c>)
    1292:	447d      	add	r5, pc
/home/rahulmahdev/devel/optee/optee_os/lib/libutee/tee_api_arith.c:341
    1294:	687b      	ldr	r3, [r7, #4]
    1296:	60fb      	str	r3, [r7, #12]
/home/rahulmahdev/devel/optee/optee_os/lib/libutee/tee_api_arith.c:342
    1298:	683b      	ldr	r3, [r7, #0]
    129a:	60bb      	str	r3, [r7, #8]
/home/rahulmahdev/devel/optee/optee_os/lib/libutee/tee_api_arith.c:344
    129c:	4b08      	ldr	r3, [pc, #32]	; (12c0 <TEE_BigIntSquare+0x40>)
    129e:	447b      	add	r3, pc
    12a0:	681b      	ldr	r3, [r3, #0]
    12a2:	68ba      	ldr	r2, [r7, #8]
    12a4:	68b9      	ldr	r1, [r7, #8]
    12a6:	68f8      	ldr	r0, [r7, #12]
    12a8:	4c06      	ldr	r4, [pc, #24]	; (12c4 <TEE_BigIntSquare+0x44>)
    12aa:	592c      	ldr	r4, [r5, r4]
    12ac:	47a0      	blx	r4
/home/rahulmahdev/devel/optee/optee_os/lib/libutee/tee_api_arith.c:345
    12ae:	f107 0710 	add.w	r7, r7, #16
    12b2:	46bd      	mov	sp, r7
    12b4:	e9dd 4500 	ldrd	r4, r5, [sp]
    12b8:	b002      	add	sp, #8
    12ba:	bd80      	pop	{r7, pc}
    12bc:	0000b2aa 	.word	0x0000b2aa
    12c0:	0000bdd6 	.word	0x0000bdd6
    12c4:	0000007c 	.word	0x0000007c

000012c8 <TEE_BigIntDiv>:
TEE_BigIntDiv():
/home/rahulmahdev/devel/optee/optee_os/lib/libutee/tee_api_arith.c:352
    12c8:	e96d 4504 	strd	r4, r5, [sp, #-16]!
    12cc:	e9cd 7e02 	strd	r7, lr, [sp, #8]
    12d0:	b08a      	sub	sp, #40	; 0x28
    12d2:	af02      	add	r7, sp, #8
    12d4:	60f8      	str	r0, [r7, #12]
    12d6:	60b9      	str	r1, [r7, #8]
    12d8:	607a      	str	r2, [r7, #4]
    12da:	603b      	str	r3, [r7, #0]
    12dc:	4d15      	ldr	r5, [pc, #84]	; (1334 <TEE_BigIntDiv+0x6c>)
    12de:	447d      	add	r5, pc
/home/rahulmahdev/devel/optee/optee_os/lib/libutee/tee_api_arith.c:353
    12e0:	68fb      	ldr	r3, [r7, #12]
    12e2:	61fb      	str	r3, [r7, #28]
/home/rahulmahdev/devel/optee/optee_os/lib/libutee/tee_api_arith.c:354
    12e4:	68bb      	ldr	r3, [r7, #8]
    12e6:	61bb      	str	r3, [r7, #24]
/home/rahulmahdev/devel/optee/optee_os/lib/libutee/tee_api_arith.c:355
    12e8:	687b      	ldr	r3, [r7, #4]
    12ea:	617b      	str	r3, [r7, #20]
/home/rahulmahdev/devel/optee/optee_os/lib/libutee/tee_api_arith.c:356
    12ec:	683b      	ldr	r3, [r7, #0]
    12ee:	613b      	str	r3, [r7, #16]
/home/rahulmahdev/devel/optee/optee_os/lib/libutee/tee_api_arith.c:358
    12f0:	f04f 0100 	mov.w	r1, #0
    12f4:	6838      	ldr	r0, [r7, #0]
    12f6:	4b10      	ldr	r3, [pc, #64]	; (1338 <TEE_BigIntDiv+0x70>)
    12f8:	447b      	add	r3, pc
    12fa:	4798      	blx	r3
    12fc:	4603      	mov	r3, r0
    12fe:	2b00      	cmp	r3, #0
    1300:	d105      	bne.n	130e <TEE_BigIntDiv+0x46>
/home/rahulmahdev/devel/optee/optee_os/lib/libutee/tee_api_arith.c:359
    1302:	4b0e      	ldr	r3, [pc, #56]	; (133c <TEE_BigIntDiv+0x74>)
    1304:	447b      	add	r3, pc
    1306:	4618      	mov	r0, r3
    1308:	4b0d      	ldr	r3, [pc, #52]	; (1340 <TEE_BigIntDiv+0x78>)
    130a:	447b      	add	r3, pc
    130c:	4798      	blx	r3
/home/rahulmahdev/devel/optee/optee_os/lib/libutee/tee_api_arith.c:361
    130e:	4b0d      	ldr	r3, [pc, #52]	; (1344 <TEE_BigIntDiv+0x7c>)
    1310:	447b      	add	r3, pc
    1312:	681b      	ldr	r3, [r3, #0]
    1314:	9300      	str	r3, [sp, #0]
    1316:	693b      	ldr	r3, [r7, #16]
    1318:	697a      	ldr	r2, [r7, #20]
    131a:	69b9      	ldr	r1, [r7, #24]
    131c:	69f8      	ldr	r0, [r7, #28]
    131e:	4c0a      	ldr	r4, [pc, #40]	; (1348 <TEE_BigIntDiv+0x80>)
    1320:	592c      	ldr	r4, [r5, r4]
    1322:	47a0      	blx	r4
/home/rahulmahdev/devel/optee/optee_os/lib/libutee/tee_api_arith.c:362
    1324:	f107 0720 	add.w	r7, r7, #32
    1328:	46bd      	mov	sp, r7
    132a:	e9dd 4500 	ldrd	r4, r5, [sp]
    132e:	b002      	add	sp, #8
    1330:	bd80      	pop	{r7, pc}
    1332:	bf00      	nop
    1334:	0000b25e 	.word	0x0000b25e
    1338:	fffffd79 	.word	0xfffffd79
    133c:	00009db8 	.word	0x00009db8
    1340:	fffff9bb 	.word	0xfffff9bb
    1344:	0000bd64 	.word	0x0000bd64
    1348:	00000050 	.word	0x00000050

0000134c <TEE_BigIntMod>:
TEE_BigIntMod():
/home/rahulmahdev/devel/optee/optee_os/lib/libutee/tee_api_arith.c:373
    134c:	e96d 4504 	strd	r4, r5, [sp, #-16]!
    1350:	e9cd 7e02 	strd	r7, lr, [sp, #8]
    1354:	b088      	sub	sp, #32
    1356:	af00      	add	r7, sp, #0
    1358:	60f8      	str	r0, [r7, #12]
    135a:	60b9      	str	r1, [r7, #8]
    135c:	607a      	str	r2, [r7, #4]
    135e:	4c1c      	ldr	r4, [pc, #112]	; (13d0 <TEE_BigIntMod+0x84>)
    1360:	447c      	add	r4, pc
/home/rahulmahdev/devel/optee/optee_os/lib/libutee/tee_api_arith.c:374
    1362:	68fb      	ldr	r3, [r7, #12]
    1364:	61fb      	str	r3, [r7, #28]
/home/rahulmahdev/devel/optee/optee_os/lib/libutee/tee_api_arith.c:375
    1366:	68bb      	ldr	r3, [r7, #8]
    1368:	61bb      	str	r3, [r7, #24]
/home/rahulmahdev/devel/optee/optee_os/lib/libutee/tee_api_arith.c:376
    136a:	687b      	ldr	r3, [r7, #4]
    136c:	617b      	str	r3, [r7, #20]
/home/rahulmahdev/devel/optee/optee_os/lib/libutee/tee_api_arith.c:378
    136e:	f04f 0102 	mov.w	r1, #2
    1372:	6878      	ldr	r0, [r7, #4]
    1374:	4b17      	ldr	r3, [pc, #92]	; (13d4 <TEE_BigIntMod+0x88>)
    1376:	447b      	add	r3, pc
    1378:	4798      	blx	r3
    137a:	4603      	mov	r3, r0
    137c:	2b00      	cmp	r3, #0
    137e:	da05      	bge.n	138c <TEE_BigIntMod+0x40>
/home/rahulmahdev/devel/optee/optee_os/lib/libutee/tee_api_arith.c:379
    1380:	4b15      	ldr	r3, [pc, #84]	; (13d8 <TEE_BigIntMod+0x8c>)
    1382:	447b      	add	r3, pc
    1384:	4618      	mov	r0, r3
    1386:	4b15      	ldr	r3, [pc, #84]	; (13dc <TEE_BigIntMod+0x90>)
    1388:	447b      	add	r3, pc
    138a:	4798      	blx	r3
/home/rahulmahdev/devel/optee/optee_os/lib/libutee/tee_api_arith.c:381
    138c:	4b14      	ldr	r3, [pc, #80]	; (13e0 <TEE_BigIntMod+0x94>)
    138e:	447b      	add	r3, pc
    1390:	681b      	ldr	r3, [r3, #0]
    1392:	697a      	ldr	r2, [r7, #20]
    1394:	69b9      	ldr	r1, [r7, #24]
    1396:	69f8      	ldr	r0, [r7, #28]
    1398:	4d12      	ldr	r5, [pc, #72]	; (13e4 <TEE_BigIntMod+0x98>)
    139a:	5965      	ldr	r5, [r4, r5]
    139c:	47a8      	blx	r5
/home/rahulmahdev/devel/optee/optee_os/lib/libutee/tee_api_arith.c:383
    139e:	f04f 0100 	mov.w	r1, #0
    13a2:	69f8      	ldr	r0, [r7, #28]
    13a4:	4b10      	ldr	r3, [pc, #64]	; (13e8 <TEE_BigIntMod+0x9c>)
    13a6:	58e3      	ldr	r3, [r4, r3]
    13a8:	4798      	blx	r3
    13aa:	4603      	mov	r3, r0
    13ac:	2b00      	cmp	r3, #0
    13ae:	da08      	bge.n	13c2 <TEE_BigIntMod+0x76>
/home/rahulmahdev/devel/optee/optee_os/lib/libutee/tee_api_arith.c:384
    13b0:	4b0e      	ldr	r3, [pc, #56]	; (13ec <TEE_BigIntMod+0xa0>)
    13b2:	447b      	add	r3, pc
    13b4:	681b      	ldr	r3, [r3, #0]
    13b6:	697a      	ldr	r2, [r7, #20]
    13b8:	69f9      	ldr	r1, [r7, #28]
    13ba:	69f8      	ldr	r0, [r7, #28]
    13bc:	4d0c      	ldr	r5, [pc, #48]	; (13f0 <TEE_BigIntMod+0xa4>)
    13be:	5964      	ldr	r4, [r4, r5]
    13c0:	47a0      	blx	r4
/home/rahulmahdev/devel/optee/optee_os/lib/libutee/tee_api_arith.c:385
    13c2:	f107 0720 	add.w	r7, r7, #32
    13c6:	46bd      	mov	sp, r7
    13c8:	e9dd 4500 	ldrd	r4, r5, [sp]
    13cc:	b002      	add	sp, #8
    13ce:	bd80      	pop	{r7, pc}
    13d0:	0000b1dc 	.word	0x0000b1dc
    13d4:	fffffcfb 	.word	0xfffffcfb
    13d8:	00009d4a 	.word	0x00009d4a
    13dc:	fffff93d 	.word	0xfffff93d
    13e0:	0000bce6 	.word	0x0000bce6
    13e4:	00000140 	.word	0x00000140
    13e8:	00000164 	.word	0x00000164
    13ec:	0000bcc2 	.word	0x0000bcc2
    13f0:	00000130 	.word	0x00000130

000013f4 <TEE_BigIntAddMod>:
TEE_BigIntAddMod():
/home/rahulmahdev/devel/optee/optee_os/lib/libutee/tee_api_arith.c:392
    13f4:	e96d 4504 	strd	r4, r5, [sp, #-16]!
    13f8:	e9cd 7e02 	strd	r7, lr, [sp, #8]
    13fc:	b08a      	sub	sp, #40	; 0x28
    13fe:	af02      	add	r7, sp, #8
    1400:	60f8      	str	r0, [r7, #12]
    1402:	60b9      	str	r1, [r7, #8]
    1404:	607a      	str	r2, [r7, #4]
    1406:	603b      	str	r3, [r7, #0]
    1408:	4c1e      	ldr	r4, [pc, #120]	; (1484 <TEE_BigIntAddMod+0x90>)
    140a:	447c      	add	r4, pc
/home/rahulmahdev/devel/optee/optee_os/lib/libutee/tee_api_arith.c:393
    140c:	68fb      	ldr	r3, [r7, #12]
    140e:	61fb      	str	r3, [r7, #28]
/home/rahulmahdev/devel/optee/optee_os/lib/libutee/tee_api_arith.c:394
    1410:	68bb      	ldr	r3, [r7, #8]
    1412:	61bb      	str	r3, [r7, #24]
/home/rahulmahdev/devel/optee/optee_os/lib/libutee/tee_api_arith.c:395
    1414:	687b      	ldr	r3, [r7, #4]
    1416:	617b      	str	r3, [r7, #20]
/home/rahulmahdev/devel/optee/optee_os/lib/libutee/tee_api_arith.c:396
    1418:	683b      	ldr	r3, [r7, #0]
    141a:	613b      	str	r3, [r7, #16]
/home/rahulmahdev/devel/optee/optee_os/lib/libutee/tee_api_arith.c:398
    141c:	f04f 0102 	mov.w	r1, #2
    1420:	6838      	ldr	r0, [r7, #0]
    1422:	4b19      	ldr	r3, [pc, #100]	; (1488 <TEE_BigIntAddMod+0x94>)
    1424:	447b      	add	r3, pc
    1426:	4798      	blx	r3
    1428:	4603      	mov	r3, r0
    142a:	2b00      	cmp	r3, #0
    142c:	da05      	bge.n	143a <TEE_BigIntAddMod+0x46>
/home/rahulmahdev/devel/optee/optee_os/lib/libutee/tee_api_arith.c:399
    142e:	4b17      	ldr	r3, [pc, #92]	; (148c <TEE_BigIntAddMod+0x98>)
    1430:	447b      	add	r3, pc
    1432:	4618      	mov	r0, r3
    1434:	4b16      	ldr	r3, [pc, #88]	; (1490 <TEE_BigIntAddMod+0x9c>)
    1436:	447b      	add	r3, pc
    1438:	4798      	blx	r3
/home/rahulmahdev/devel/optee/optee_os/lib/libutee/tee_api_arith.c:401
    143a:	4b16      	ldr	r3, [pc, #88]	; (1494 <TEE_BigIntAddMod+0xa0>)
    143c:	447b      	add	r3, pc
    143e:	681b      	ldr	r3, [r3, #0]
    1440:	9300      	str	r3, [sp, #0]
    1442:	693b      	ldr	r3, [r7, #16]
    1444:	697a      	ldr	r2, [r7, #20]
    1446:	69b9      	ldr	r1, [r7, #24]
    1448:	69f8      	ldr	r0, [r7, #28]
    144a:	4d13      	ldr	r5, [pc, #76]	; (1498 <TEE_BigIntAddMod+0xa4>)
    144c:	5965      	ldr	r5, [r4, r5]
    144e:	47a8      	blx	r5
/home/rahulmahdev/devel/optee/optee_os/lib/libutee/tee_api_arith.c:402
    1450:	f04f 0100 	mov.w	r1, #0
    1454:	69f8      	ldr	r0, [r7, #28]
    1456:	4b11      	ldr	r3, [pc, #68]	; (149c <TEE_BigIntAddMod+0xa8>)
    1458:	58e3      	ldr	r3, [r4, r3]
    145a:	4798      	blx	r3
    145c:	4603      	mov	r3, r0
    145e:	2b00      	cmp	r3, #0
    1460:	da08      	bge.n	1474 <TEE_BigIntAddMod+0x80>
/home/rahulmahdev/devel/optee/optee_os/lib/libutee/tee_api_arith.c:403
    1462:	4b0f      	ldr	r3, [pc, #60]	; (14a0 <TEE_BigIntAddMod+0xac>)
    1464:	447b      	add	r3, pc
    1466:	681b      	ldr	r3, [r3, #0]
    1468:	693a      	ldr	r2, [r7, #16]
    146a:	69f9      	ldr	r1, [r7, #28]
    146c:	69f8      	ldr	r0, [r7, #28]
    146e:	4d0d      	ldr	r5, [pc, #52]	; (14a4 <TEE_BigIntAddMod+0xb0>)
    1470:	5964      	ldr	r4, [r4, r5]
    1472:	47a0      	blx	r4
/home/rahulmahdev/devel/optee/optee_os/lib/libutee/tee_api_arith.c:404
    1474:	f107 0720 	add.w	r7, r7, #32
    1478:	46bd      	mov	sp, r7
    147a:	e9dd 4500 	ldrd	r4, r5, [sp]
    147e:	b002      	add	sp, #8
    1480:	bd80      	pop	{r7, pc}
    1482:	bf00      	nop
    1484:	0000b132 	.word	0x0000b132
    1488:	fffffc4d 	.word	0xfffffc4d
    148c:	00009c9c 	.word	0x00009c9c
    1490:	fffff88f 	.word	0xfffff88f
    1494:	0000bc38 	.word	0x0000bc38
    1498:	0000019c 	.word	0x0000019c
    149c:	00000164 	.word	0x00000164
    14a0:	0000bc10 	.word	0x0000bc10
    14a4:	00000130 	.word	0x00000130

000014a8 <TEE_BigIntSubMod>:
TEE_BigIntSubMod():
/home/rahulmahdev/devel/optee/optee_os/lib/libutee/tee_api_arith.c:411
    14a8:	e96d 4504 	strd	r4, r5, [sp, #-16]!
    14ac:	e9cd 7e02 	strd	r7, lr, [sp, #8]
    14b0:	b08a      	sub	sp, #40	; 0x28
    14b2:	af02      	add	r7, sp, #8
    14b4:	60f8      	str	r0, [r7, #12]
    14b6:	60b9      	str	r1, [r7, #8]
    14b8:	607a      	str	r2, [r7, #4]
    14ba:	603b      	str	r3, [r7, #0]
    14bc:	4c1e      	ldr	r4, [pc, #120]	; (1538 <TEE_BigIntSubMod+0x90>)
    14be:	447c      	add	r4, pc
/home/rahulmahdev/devel/optee/optee_os/lib/libutee/tee_api_arith.c:412
    14c0:	68fb      	ldr	r3, [r7, #12]
    14c2:	61fb      	str	r3, [r7, #28]
/home/rahulmahdev/devel/optee/optee_os/lib/libutee/tee_api_arith.c:413
    14c4:	68bb      	ldr	r3, [r7, #8]
    14c6:	61bb      	str	r3, [r7, #24]
/home/rahulmahdev/devel/optee/optee_os/lib/libutee/tee_api_arith.c:414
    14c8:	687b      	ldr	r3, [r7, #4]
    14ca:	617b      	str	r3, [r7, #20]
/home/rahulmahdev/devel/optee/optee_os/lib/libutee/tee_api_arith.c:415
    14cc:	683b      	ldr	r3, [r7, #0]
    14ce:	613b      	str	r3, [r7, #16]
/home/rahulmahdev/devel/optee/optee_os/lib/libutee/tee_api_arith.c:417
    14d0:	f04f 0102 	mov.w	r1, #2
    14d4:	6838      	ldr	r0, [r7, #0]
    14d6:	4b19      	ldr	r3, [pc, #100]	; (153c <TEE_BigIntSubMod+0x94>)
    14d8:	447b      	add	r3, pc
    14da:	4798      	blx	r3
    14dc:	4603      	mov	r3, r0
    14de:	2b00      	cmp	r3, #0
    14e0:	da05      	bge.n	14ee <TEE_BigIntSubMod+0x46>
/home/rahulmahdev/devel/optee/optee_os/lib/libutee/tee_api_arith.c:418
    14e2:	4b17      	ldr	r3, [pc, #92]	; (1540 <TEE_BigIntSubMod+0x98>)
    14e4:	447b      	add	r3, pc
    14e6:	4618      	mov	r0, r3
    14e8:	4b16      	ldr	r3, [pc, #88]	; (1544 <TEE_BigIntSubMod+0x9c>)
    14ea:	447b      	add	r3, pc
    14ec:	4798      	blx	r3
/home/rahulmahdev/devel/optee/optee_os/lib/libutee/tee_api_arith.c:420
    14ee:	4b16      	ldr	r3, [pc, #88]	; (1548 <TEE_BigIntSubMod+0xa0>)
    14f0:	447b      	add	r3, pc
    14f2:	681b      	ldr	r3, [r3, #0]
    14f4:	9300      	str	r3, [sp, #0]
    14f6:	693b      	ldr	r3, [r7, #16]
    14f8:	697a      	ldr	r2, [r7, #20]
    14fa:	69b9      	ldr	r1, [r7, #24]
    14fc:	69f8      	ldr	r0, [r7, #28]
    14fe:	4d13      	ldr	r5, [pc, #76]	; (154c <TEE_BigIntSubMod+0xa4>)
    1500:	5965      	ldr	r5, [r4, r5]
    1502:	47a8      	blx	r5
/home/rahulmahdev/devel/optee/optee_os/lib/libutee/tee_api_arith.c:421
    1504:	f04f 0100 	mov.w	r1, #0
    1508:	69f8      	ldr	r0, [r7, #28]
    150a:	4b11      	ldr	r3, [pc, #68]	; (1550 <TEE_BigIntSubMod+0xa8>)
    150c:	58e3      	ldr	r3, [r4, r3]
    150e:	4798      	blx	r3
    1510:	4603      	mov	r3, r0
    1512:	2b00      	cmp	r3, #0
    1514:	da08      	bge.n	1528 <TEE_BigIntSubMod+0x80>
/home/rahulmahdev/devel/optee/optee_os/lib/libutee/tee_api_arith.c:422
    1516:	4b0f      	ldr	r3, [pc, #60]	; (1554 <TEE_BigIntSubMod+0xac>)
    1518:	447b      	add	r3, pc
    151a:	681b      	ldr	r3, [r3, #0]
    151c:	693a      	ldr	r2, [r7, #16]
    151e:	69f9      	ldr	r1, [r7, #28]
    1520:	69f8      	ldr	r0, [r7, #28]
    1522:	4d0d      	ldr	r5, [pc, #52]	; (1558 <TEE_BigIntSubMod+0xb0>)
    1524:	5964      	ldr	r4, [r4, r5]
    1526:	47a0      	blx	r4
/home/rahulmahdev/devel/optee/optee_os/lib/libutee/tee_api_arith.c:423
    1528:	f107 0720 	add.w	r7, r7, #32
    152c:	46bd      	mov	sp, r7
    152e:	e9dd 4500 	ldrd	r4, r5, [sp]
    1532:	b002      	add	sp, #8
    1534:	bd80      	pop	{r7, pc}
    1536:	bf00      	nop
    1538:	0000b07e 	.word	0x0000b07e
    153c:	fffffb99 	.word	0xfffffb99
    1540:	00009be8 	.word	0x00009be8
    1544:	fffff7db 	.word	0xfffff7db
    1548:	0000bb84 	.word	0x0000bb84
    154c:	00000154 	.word	0x00000154
    1550:	00000164 	.word	0x00000164
    1554:	0000bb5c 	.word	0x0000bb5c
    1558:	00000130 	.word	0x00000130

0000155c <TEE_BigIntMulMod>:
TEE_BigIntMulMod():
/home/rahulmahdev/devel/optee/optee_os/lib/libutee/tee_api_arith.c:430
    155c:	e96d 4504 	strd	r4, r5, [sp, #-16]!
    1560:	e9cd 7e02 	strd	r7, lr, [sp, #8]
    1564:	b08c      	sub	sp, #48	; 0x30
    1566:	af02      	add	r7, sp, #8
    1568:	60f8      	str	r0, [r7, #12]
    156a:	60b9      	str	r1, [r7, #8]
    156c:	607a      	str	r2, [r7, #4]
    156e:	603b      	str	r3, [r7, #0]
    1570:	4c2b      	ldr	r4, [pc, #172]	; (1620 <TEE_BigIntMulMod+0xc4>)
    1572:	447c      	add	r4, pc
/home/rahulmahdev/devel/optee/optee_os/lib/libutee/tee_api_arith.c:431
    1574:	68fb      	ldr	r3, [r7, #12]
    1576:	627b      	str	r3, [r7, #36]	; 0x24
/home/rahulmahdev/devel/optee/optee_os/lib/libutee/tee_api_arith.c:432
    1578:	68bb      	ldr	r3, [r7, #8]
    157a:	623b      	str	r3, [r7, #32]
/home/rahulmahdev/devel/optee/optee_os/lib/libutee/tee_api_arith.c:433
    157c:	687b      	ldr	r3, [r7, #4]
    157e:	61fb      	str	r3, [r7, #28]
/home/rahulmahdev/devel/optee/optee_os/lib/libutee/tee_api_arith.c:434
    1580:	683b      	ldr	r3, [r7, #0]
    1582:	61bb      	str	r3, [r7, #24]
/home/rahulmahdev/devel/optee/optee_os/lib/libutee/tee_api_arith.c:437
    1584:	f04f 0102 	mov.w	r1, #2
    1588:	6838      	ldr	r0, [r7, #0]
    158a:	4b26      	ldr	r3, [pc, #152]	; (1624 <TEE_BigIntMulMod+0xc8>)
    158c:	447b      	add	r3, pc
    158e:	4798      	blx	r3
    1590:	4603      	mov	r3, r0
    1592:	2b00      	cmp	r3, #0
    1594:	da05      	bge.n	15a2 <TEE_BigIntMulMod+0x46>
/home/rahulmahdev/devel/optee/optee_os/lib/libutee/tee_api_arith.c:438
    1596:	4b24      	ldr	r3, [pc, #144]	; (1628 <TEE_BigIntMulMod+0xcc>)
    1598:	447b      	add	r3, pc
    159a:	4618      	mov	r0, r3
    159c:	4b23      	ldr	r3, [pc, #140]	; (162c <TEE_BigIntMulMod+0xd0>)
    159e:	447b      	add	r3, pc
    15a0:	4798      	blx	r3
/home/rahulmahdev/devel/optee/optee_os/lib/libutee/tee_api_arith.c:448
    15a2:	4b23      	ldr	r3, [pc, #140]	; (1630 <TEE_BigIntMulMod+0xd4>)
    15a4:	447b      	add	r3, pc
    15a6:	681a      	ldr	r2, [r3, #0]
    15a8:	f107 0314 	add.w	r3, r7, #20
    15ac:	4611      	mov	r1, r2
    15ae:	4618      	mov	r0, r3
    15b0:	4b20      	ldr	r3, [pc, #128]	; (1634 <TEE_BigIntMulMod+0xd8>)
    15b2:	58e3      	ldr	r3, [r4, r3]
    15b4:	4798      	blx	r3
/home/rahulmahdev/devel/optee/optee_os/lib/libutee/tee_api_arith.c:449
    15b6:	6978      	ldr	r0, [r7, #20]
    15b8:	4b1f      	ldr	r3, [pc, #124]	; (1638 <TEE_BigIntMulMod+0xdc>)
    15ba:	447b      	add	r3, pc
    15bc:	681b      	ldr	r3, [r3, #0]
    15be:	9300      	str	r3, [sp, #0]
    15c0:	69bb      	ldr	r3, [r7, #24]
    15c2:	69fa      	ldr	r2, [r7, #28]
    15c4:	6a39      	ldr	r1, [r7, #32]
    15c6:	4d1d      	ldr	r5, [pc, #116]	; (163c <TEE_BigIntMulMod+0xe0>)
    15c8:	5965      	ldr	r5, [r4, r5]
    15ca:	47a8      	blx	r5
/home/rahulmahdev/devel/optee/optee_os/lib/libutee/tee_api_arith.c:450
    15cc:	697b      	ldr	r3, [r7, #20]
    15ce:	f04f 0100 	mov.w	r1, #0
    15d2:	4618      	mov	r0, r3
    15d4:	4b1a      	ldr	r3, [pc, #104]	; (1640 <TEE_BigIntMulMod+0xe4>)
    15d6:	58e3      	ldr	r3, [r4, r3]
    15d8:	4798      	blx	r3
    15da:	4603      	mov	r3, r0
    15dc:	2b00      	cmp	r3, #0
    15de:	da08      	bge.n	15f2 <TEE_BigIntMulMod+0x96>
/home/rahulmahdev/devel/optee/optee_os/lib/libutee/tee_api_arith.c:451
    15e0:	6978      	ldr	r0, [r7, #20]
    15e2:	6979      	ldr	r1, [r7, #20]
    15e4:	4b17      	ldr	r3, [pc, #92]	; (1644 <TEE_BigIntMulMod+0xe8>)
    15e6:	447b      	add	r3, pc
    15e8:	681b      	ldr	r3, [r3, #0]
    15ea:	69ba      	ldr	r2, [r7, #24]
    15ec:	4d16      	ldr	r5, [pc, #88]	; (1648 <TEE_BigIntMulMod+0xec>)
    15ee:	5965      	ldr	r5, [r4, r5]
    15f0:	47a8      	blx	r5
/home/rahulmahdev/devel/optee/optee_os/lib/libutee/tee_api_arith.c:452
    15f2:	697b      	ldr	r3, [r7, #20]
    15f4:	4619      	mov	r1, r3
    15f6:	6a78      	ldr	r0, [r7, #36]	; 0x24
    15f8:	4b14      	ldr	r3, [pc, #80]	; (164c <TEE_BigIntMulMod+0xf0>)
    15fa:	58e3      	ldr	r3, [r4, r3]
    15fc:	4798      	blx	r3
/home/rahulmahdev/devel/optee/optee_os/lib/libutee/tee_api_arith.c:453
    15fe:	4b14      	ldr	r3, [pc, #80]	; (1650 <TEE_BigIntMulMod+0xf4>)
    1600:	447b      	add	r3, pc
    1602:	681a      	ldr	r2, [r3, #0]
    1604:	f107 0314 	add.w	r3, r7, #20
    1608:	4611      	mov	r1, r2
    160a:	4618      	mov	r0, r3
    160c:	4b11      	ldr	r3, [pc, #68]	; (1654 <TEE_BigIntMulMod+0xf8>)
    160e:	58e3      	ldr	r3, [r4, r3]
    1610:	4798      	blx	r3
/home/rahulmahdev/devel/optee/optee_os/lib/libutee/tee_api_arith.c:454
    1612:	f107 0728 	add.w	r7, r7, #40	; 0x28
    1616:	46bd      	mov	sp, r7
    1618:	e9dd 4500 	ldrd	r4, r5, [sp]
    161c:	b002      	add	sp, #8
    161e:	bd80      	pop	{r7, pc}
    1620:	0000afca 	.word	0x0000afca
    1624:	fffffae5 	.word	0xfffffae5
    1628:	00009b34 	.word	0x00009b34
    162c:	fffff727 	.word	0xfffff727
    1630:	0000bad0 	.word	0x0000bad0
    1634:	000000dc 	.word	0x000000dc
    1638:	0000baba 	.word	0x0000baba
    163c:	000000e8 	.word	0x000000e8
    1640:	00000164 	.word	0x00000164
    1644:	0000ba8e 	.word	0x0000ba8e
    1648:	00000130 	.word	0x00000130
    164c:	00000010 	.word	0x00000010
    1650:	0000ba74 	.word	0x0000ba74
    1654:	00000094 	.word	0x00000094

00001658 <TEE_BigIntSquareMod>:
TEE_BigIntSquareMod():
/home/rahulmahdev/devel/optee/optee_os/lib/libutee/tee_api_arith.c:461
    1658:	f84d 4d0c 	str.w	r4, [sp, #-12]!
    165c:	e9cd 7e01 	strd	r7, lr, [sp, #4]
    1660:	b085      	sub	sp, #20
    1662:	af00      	add	r7, sp, #0
    1664:	60f8      	str	r0, [r7, #12]
    1666:	60b9      	str	r1, [r7, #8]
    1668:	607a      	str	r2, [r7, #4]
/home/rahulmahdev/devel/optee/optee_os/lib/libutee/tee_api_arith.c:462
    166a:	687b      	ldr	r3, [r7, #4]
    166c:	68ba      	ldr	r2, [r7, #8]
    166e:	68b9      	ldr	r1, [r7, #8]
    1670:	68f8      	ldr	r0, [r7, #12]
    1672:	4c05      	ldr	r4, [pc, #20]	; (1688 <TEE_BigIntSquareMod+0x30>)
    1674:	447c      	add	r4, pc
    1676:	47a0      	blx	r4
/home/rahulmahdev/devel/optee/optee_os/lib/libutee/tee_api_arith.c:463
    1678:	f107 0714 	add.w	r7, r7, #20
    167c:	46bd      	mov	sp, r7
    167e:	e9dd 4700 	ldrd	r4, r7, [sp]
    1682:	b002      	add	sp, #8
    1684:	f85d fb04 	ldr.w	pc, [sp], #4
    1688:	fffffee5 	.word	0xfffffee5

0000168c <TEE_BigIntInvMod>:
TEE_BigIntInvMod():
/home/rahulmahdev/devel/optee/optee_os/lib/libutee/tee_api_arith.c:470
    168c:	e96d 4504 	strd	r4, r5, [sp, #-16]!
    1690:	e9cd 7e02 	strd	r7, lr, [sp, #8]
    1694:	b088      	sub	sp, #32
    1696:	af00      	add	r7, sp, #0
    1698:	60f8      	str	r0, [r7, #12]
    169a:	60b9      	str	r1, [r7, #8]
    169c:	607a      	str	r2, [r7, #4]
    169e:	4d18      	ldr	r5, [pc, #96]	; (1700 <TEE_BigIntInvMod+0x74>)
    16a0:	447d      	add	r5, pc
/home/rahulmahdev/devel/optee/optee_os/lib/libutee/tee_api_arith.c:471
    16a2:	68fb      	ldr	r3, [r7, #12]
    16a4:	61fb      	str	r3, [r7, #28]
/home/rahulmahdev/devel/optee/optee_os/lib/libutee/tee_api_arith.c:472
    16a6:	68bb      	ldr	r3, [r7, #8]
    16a8:	61bb      	str	r3, [r7, #24]
/home/rahulmahdev/devel/optee/optee_os/lib/libutee/tee_api_arith.c:473
    16aa:	687b      	ldr	r3, [r7, #4]
    16ac:	617b      	str	r3, [r7, #20]
/home/rahulmahdev/devel/optee/optee_os/lib/libutee/tee_api_arith.c:475
    16ae:	f04f 0102 	mov.w	r1, #2
    16b2:	6878      	ldr	r0, [r7, #4]
    16b4:	4b13      	ldr	r3, [pc, #76]	; (1704 <TEE_BigIntInvMod+0x78>)
    16b6:	447b      	add	r3, pc
    16b8:	4798      	blx	r3
    16ba:	4603      	mov	r3, r0
    16bc:	2b00      	cmp	r3, #0
    16be:	db08      	blt.n	16d2 <TEE_BigIntInvMod+0x46>
/home/rahulmahdev/devel/optee/optee_os/lib/libutee/tee_api_arith.c:475 (discriminator 1)
    16c0:	f04f 0100 	mov.w	r1, #0
    16c4:	68b8      	ldr	r0, [r7, #8]
    16c6:	4b10      	ldr	r3, [pc, #64]	; (1708 <TEE_BigIntInvMod+0x7c>)
    16c8:	447b      	add	r3, pc
    16ca:	4798      	blx	r3
    16cc:	4603      	mov	r3, r0
    16ce:	2b00      	cmp	r3, #0
    16d0:	d105      	bne.n	16de <TEE_BigIntInvMod+0x52>
/home/rahulmahdev/devel/optee/optee_os/lib/libutee/tee_api_arith.c:476
    16d2:	4b0e      	ldr	r3, [pc, #56]	; (170c <TEE_BigIntInvMod+0x80>)
    16d4:	447b      	add	r3, pc
    16d6:	4618      	mov	r0, r3
    16d8:	4b0d      	ldr	r3, [pc, #52]	; (1710 <TEE_BigIntInvMod+0x84>)
    16da:	447b      	add	r3, pc
    16dc:	4798      	blx	r3
/home/rahulmahdev/devel/optee/optee_os/lib/libutee/tee_api_arith.c:478
    16de:	4b0d      	ldr	r3, [pc, #52]	; (1714 <TEE_BigIntInvMod+0x88>)
    16e0:	447b      	add	r3, pc
    16e2:	681b      	ldr	r3, [r3, #0]
    16e4:	697a      	ldr	r2, [r7, #20]
    16e6:	69b9      	ldr	r1, [r7, #24]
    16e8:	69f8      	ldr	r0, [r7, #28]
    16ea:	4c0b      	ldr	r4, [pc, #44]	; (1718 <TEE_BigIntInvMod+0x8c>)
    16ec:	592c      	ldr	r4, [r5, r4]
    16ee:	47a0      	blx	r4
/home/rahulmahdev/devel/optee/optee_os/lib/libutee/tee_api_arith.c:479
    16f0:	f107 0720 	add.w	r7, r7, #32
    16f4:	46bd      	mov	sp, r7
    16f6:	e9dd 4500 	ldrd	r4, r5, [sp]
    16fa:	b002      	add	sp, #8
    16fc:	bd80      	pop	{r7, pc}
    16fe:	bf00      	nop
    1700:	0000ae9c 	.word	0x0000ae9c
    1704:	fffff9bb 	.word	0xfffff9bb
    1708:	fffff9a9 	.word	0xfffff9a9
    170c:	00009a10 	.word	0x00009a10
    1710:	fffff5eb 	.word	0xfffff5eb
    1714:	0000b994 	.word	0x0000b994
    1718:	00000124 	.word	0x00000124

0000171c <TEE_BigIntRelativePrime>:
TEE_BigIntRelativePrime():
/home/rahulmahdev/devel/optee/optee_os/lib/libutee/tee_api_arith.c:489
    171c:	e96d 4504 	strd	r4, r5, [sp, #-16]!
    1720:	e9cd 7e02 	strd	r7, lr, [sp, #8]
    1724:	b086      	sub	sp, #24
    1726:	af00      	add	r7, sp, #0
    1728:	6078      	str	r0, [r7, #4]
    172a:	6039      	str	r1, [r7, #0]
    172c:	4c1c      	ldr	r4, [pc, #112]	; (17a0 <TEE_BigIntRelativePrime+0x84>)
    172e:	447c      	add	r4, pc
/home/rahulmahdev/devel/optee/optee_os/lib/libutee/tee_api_arith.c:490
    1730:	687b      	ldr	r3, [r7, #4]
    1732:	617b      	str	r3, [r7, #20]
/home/rahulmahdev/devel/optee/optee_os/lib/libutee/tee_api_arith.c:491
    1734:	683b      	ldr	r3, [r7, #0]
    1736:	613b      	str	r3, [r7, #16]
/home/rahulmahdev/devel/optee/optee_os/lib/libutee/tee_api_arith.c:495
    1738:	4b1a      	ldr	r3, [pc, #104]	; (17a4 <TEE_BigIntRelativePrime+0x88>)
    173a:	447b      	add	r3, pc
    173c:	681a      	ldr	r2, [r3, #0]
    173e:	f107 0308 	add.w	r3, r7, #8
    1742:	4611      	mov	r1, r2
    1744:	4618      	mov	r0, r3
    1746:	4b18      	ldr	r3, [pc, #96]	; (17a8 <TEE_BigIntRelativePrime+0x8c>)
    1748:	58e3      	ldr	r3, [r4, r3]
    174a:	4798      	blx	r3
/home/rahulmahdev/devel/optee/optee_os/lib/libutee/tee_api_arith.c:497
    174c:	68b8      	ldr	r0, [r7, #8]
    174e:	4b17      	ldr	r3, [pc, #92]	; (17ac <TEE_BigIntRelativePrime+0x90>)
    1750:	447b      	add	r3, pc
    1752:	681b      	ldr	r3, [r3, #0]
    1754:	693a      	ldr	r2, [r7, #16]
    1756:	6979      	ldr	r1, [r7, #20]
    1758:	4d15      	ldr	r5, [pc, #84]	; (17b0 <TEE_BigIntRelativePrime+0x94>)
    175a:	5965      	ldr	r5, [r4, r5]
    175c:	47a8      	blx	r5
/home/rahulmahdev/devel/optee/optee_os/lib/libutee/tee_api_arith.c:498
    175e:	68bb      	ldr	r3, [r7, #8]
    1760:	f04f 0101 	mov.w	r1, #1
    1764:	4618      	mov	r0, r3
    1766:	4b13      	ldr	r3, [pc, #76]	; (17b4 <TEE_BigIntRelativePrime+0x98>)
    1768:	58e3      	ldr	r3, [r4, r3]
    176a:	4798      	blx	r3
    176c:	4603      	mov	r3, r0
    176e:	60fb      	str	r3, [r7, #12]
/home/rahulmahdev/devel/optee/optee_os/lib/libutee/tee_api_arith.c:500
    1770:	4b11      	ldr	r3, [pc, #68]	; (17b8 <TEE_BigIntRelativePrime+0x9c>)
    1772:	447b      	add	r3, pc
    1774:	681a      	ldr	r2, [r3, #0]
    1776:	f107 0308 	add.w	r3, r7, #8
    177a:	4611      	mov	r1, r2
    177c:	4618      	mov	r0, r3
    177e:	4b0f      	ldr	r3, [pc, #60]	; (17bc <TEE_BigIntRelativePrime+0xa0>)
    1780:	58e3      	ldr	r3, [r4, r3]
    1782:	4798      	blx	r3
/home/rahulmahdev/devel/optee/optee_os/lib/libutee/tee_api_arith.c:502
    1784:	68fb      	ldr	r3, [r7, #12]
    1786:	2b00      	cmp	r3, #0
    1788:	bf0c      	ite	eq
    178a:	2301      	moveq	r3, #1
    178c:	2300      	movne	r3, #0
    178e:	b2db      	uxtb	r3, r3
/home/rahulmahdev/devel/optee/optee_os/lib/libutee/tee_api_arith.c:503
    1790:	4618      	mov	r0, r3
    1792:	f107 0718 	add.w	r7, r7, #24
    1796:	46bd      	mov	sp, r7
    1798:	e9dd 4500 	ldrd	r4, r5, [sp]
    179c:	b002      	add	sp, #8
    179e:	bd80      	pop	{r7, pc}
    17a0:	0000ae0e 	.word	0x0000ae0e
    17a4:	0000b93a 	.word	0x0000b93a
    17a8:	000000dc 	.word	0x000000dc
    17ac:	0000b924 	.word	0x0000b924
    17b0:	000000d8 	.word	0x000000d8
    17b4:	00000164 	.word	0x00000164
    17b8:	0000b902 	.word	0x0000b902
    17bc:	00000094 	.word	0x00000094

000017c0 <TEE_BigIntComputeExtendedGcd>:
TEE_BigIntComputeExtendedGcd():
/home/rahulmahdev/devel/optee/optee_os/lib/libutee/tee_api_arith.c:511
    17c0:	e96d 4504 	strd	r4, r5, [sp, #-16]!
    17c4:	e9cd 7e02 	strd	r7, lr, [sp, #8]
    17c8:	b08c      	sub	sp, #48	; 0x30
    17ca:	af02      	add	r7, sp, #8
    17cc:	60f8      	str	r0, [r7, #12]
    17ce:	60b9      	str	r1, [r7, #8]
    17d0:	607a      	str	r2, [r7, #4]
    17d2:	603b      	str	r3, [r7, #0]
    17d4:	4d0f      	ldr	r5, [pc, #60]	; (1814 <TEE_BigIntComputeExtendedGcd+0x54>)
    17d6:	447d      	add	r5, pc
/home/rahulmahdev/devel/optee/optee_os/lib/libutee/tee_api_arith.c:512
    17d8:	68fb      	ldr	r3, [r7, #12]
    17da:	627b      	str	r3, [r7, #36]	; 0x24
/home/rahulmahdev/devel/optee/optee_os/lib/libutee/tee_api_arith.c:513
    17dc:	68bb      	ldr	r3, [r7, #8]
    17de:	623b      	str	r3, [r7, #32]
/home/rahulmahdev/devel/optee/optee_os/lib/libutee/tee_api_arith.c:514
    17e0:	687b      	ldr	r3, [r7, #4]
    17e2:	61fb      	str	r3, [r7, #28]
/home/rahulmahdev/devel/optee/optee_os/lib/libutee/tee_api_arith.c:515
    17e4:	683b      	ldr	r3, [r7, #0]
    17e6:	61bb      	str	r3, [r7, #24]
/home/rahulmahdev/devel/optee/optee_os/lib/libutee/tee_api_arith.c:516
    17e8:	6bbb      	ldr	r3, [r7, #56]	; 0x38
    17ea:	617b      	str	r3, [r7, #20]
/home/rahulmahdev/devel/optee/optee_os/lib/libutee/tee_api_arith.c:518
    17ec:	4b0a      	ldr	r3, [pc, #40]	; (1818 <TEE_BigIntComputeExtendedGcd+0x58>)
    17ee:	447b      	add	r3, pc
    17f0:	681b      	ldr	r3, [r3, #0]
    17f2:	9301      	str	r3, [sp, #4]
    17f4:	697b      	ldr	r3, [r7, #20]
    17f6:	9300      	str	r3, [sp, #0]
    17f8:	69bb      	ldr	r3, [r7, #24]
    17fa:	69fa      	ldr	r2, [r7, #28]
    17fc:	6a39      	ldr	r1, [r7, #32]
    17fe:	6a78      	ldr	r0, [r7, #36]	; 0x24
    1800:	4c06      	ldr	r4, [pc, #24]	; (181c <TEE_BigIntComputeExtendedGcd+0x5c>)
    1802:	592c      	ldr	r4, [r5, r4]
    1804:	47a0      	blx	r4
/home/rahulmahdev/devel/optee/optee_os/lib/libutee/tee_api_arith.c:519
    1806:	f107 0728 	add.w	r7, r7, #40	; 0x28
    180a:	46bd      	mov	sp, r7
    180c:	e9dd 4500 	ldrd	r4, r5, [sp]
    1810:	b002      	add	sp, #8
    1812:	bd80      	pop	{r7, pc}
    1814:	0000ad66 	.word	0x0000ad66
    1818:	0000b886 	.word	0x0000b886
    181c:	00000198 	.word	0x00000198

00001820 <TEE_BigIntIsProbablePrime>:
TEE_BigIntIsProbablePrime():
/home/rahulmahdev/devel/optee/optee_os/lib/libutee/tee_api_arith.c:526
    1820:	f84d 4d0c 	str.w	r4, [sp, #-12]!
    1824:	e9cd 7e01 	strd	r7, lr, [sp, #4]
    1828:	b085      	sub	sp, #20
    182a:	af00      	add	r7, sp, #0
    182c:	6078      	str	r0, [r7, #4]
    182e:	6039      	str	r1, [r7, #0]
    1830:	4c11      	ldr	r4, [pc, #68]	; (1878 <TEE_BigIntIsProbablePrime+0x58>)
    1832:	447c      	add	r4, pc
/home/rahulmahdev/devel/optee/optee_os/lib/libutee/tee_api_arith.c:527
    1834:	687b      	ldr	r3, [r7, #4]
    1836:	60fb      	str	r3, [r7, #12]
/home/rahulmahdev/devel/optee/optee_os/lib/libutee/tee_api_arith.c:529
    1838:	683b      	ldr	r3, [r7, #0]
    183a:	2b4f      	cmp	r3, #79	; 0x4f
    183c:	d802      	bhi.n	1844 <TEE_BigIntIsProbablePrime+0x24>
/home/rahulmahdev/devel/optee/optee_os/lib/libutee/tee_api_arith.c:530
    183e:	f04f 0350 	mov.w	r3, #80	; 0x50
    1842:	603b      	str	r3, [r7, #0]
/home/rahulmahdev/devel/optee/optee_os/lib/libutee/tee_api_arith.c:532
    1844:	683b      	ldr	r3, [r7, #0]
    1846:	f5b3 7f80 	cmp.w	r3, #256	; 0x100
    184a:	d902      	bls.n	1852 <TEE_BigIntIsProbablePrime+0x32>
/home/rahulmahdev/devel/optee/optee_os/lib/libutee/tee_api_arith.c:533
    184c:	f44f 7380 	mov.w	r3, #256	; 0x100
    1850:	603b      	str	r3, [r7, #0]
/home/rahulmahdev/devel/optee/optee_os/lib/libutee/tee_api_arith.c:535
    1852:	683b      	ldr	r3, [r7, #0]
    1854:	4a09      	ldr	r2, [pc, #36]	; (187c <TEE_BigIntIsProbablePrime+0x5c>)
    1856:	447a      	add	r2, pc
    1858:	6812      	ldr	r2, [r2, #0]
    185a:	4619      	mov	r1, r3
    185c:	68f8      	ldr	r0, [r7, #12]
    185e:	4b08      	ldr	r3, [pc, #32]	; (1880 <TEE_BigIntIsProbablePrime+0x60>)
    1860:	58e3      	ldr	r3, [r4, r3]
    1862:	4798      	blx	r3
    1864:	4603      	mov	r3, r0
/home/rahulmahdev/devel/optee/optee_os/lib/libutee/tee_api_arith.c:536
    1866:	4618      	mov	r0, r3
    1868:	f107 0714 	add.w	r7, r7, #20
    186c:	46bd      	mov	sp, r7
    186e:	e9dd 4700 	ldrd	r4, r7, [sp]
    1872:	b002      	add	sp, #8
    1874:	f85d fb04 	ldr.w	pc, [sp], #4
    1878:	0000ad0a 	.word	0x0000ad0a
    187c:	0000b81e 	.word	0x0000b81e
    1880:	00000098 	.word	0x00000098

00001884 <TEE_BigIntConvertToFMM>:
TEE_BigIntConvertToFMM():
/home/rahulmahdev/devel/optee/optee_os/lib/libutee/tee_api_arith.c:549
    1884:	e96d 4504 	strd	r4, r5, [sp, #-16]!
    1888:	e9cd 7e02 	strd	r7, lr, [sp, #8]
    188c:	b08a      	sub	sp, #40	; 0x28
    188e:	af02      	add	r7, sp, #8
    1890:	60f8      	str	r0, [r7, #12]
    1892:	60b9      	str	r1, [r7, #8]
    1894:	607a      	str	r2, [r7, #4]
    1896:	603b      	str	r3, [r7, #0]
    1898:	4d10      	ldr	r5, [pc, #64]	; (18dc <TEE_BigIntConvertToFMM+0x58>)
    189a:	447d      	add	r5, pc
/home/rahulmahdev/devel/optee/optee_os/lib/libutee/tee_api_arith.c:550
    189c:	68fb      	ldr	r3, [r7, #12]
    189e:	61fb      	str	r3, [r7, #28]
/home/rahulmahdev/devel/optee/optee_os/lib/libutee/tee_api_arith.c:551
    18a0:	68bb      	ldr	r3, [r7, #8]
    18a2:	61bb      	str	r3, [r7, #24]
/home/rahulmahdev/devel/optee/optee_os/lib/libutee/tee_api_arith.c:552
    18a4:	687b      	ldr	r3, [r7, #4]
    18a6:	617b      	str	r3, [r7, #20]
/home/rahulmahdev/devel/optee/optee_os/lib/libutee/tee_api_arith.c:553
    18a8:	683b      	ldr	r3, [r7, #0]
    18aa:	613b      	str	r3, [r7, #16]
/home/rahulmahdev/devel/optee/optee_os/lib/libutee/tee_api_arith.c:556
    18ac:	693b      	ldr	r3, [r7, #16]
    18ae:	6859      	ldr	r1, [r3, #4]
    18b0:	693b      	ldr	r3, [r7, #16]
    18b2:	689b      	ldr	r3, [r3, #8]
    18b4:	4a0a      	ldr	r2, [pc, #40]	; (18e0 <TEE_BigIntConvertToFMM+0x5c>)
    18b6:	447a      	add	r2, pc
    18b8:	6812      	ldr	r2, [r2, #0]
    18ba:	9201      	str	r2, [sp, #4]
    18bc:	9300      	str	r3, [sp, #0]
    18be:	697b      	ldr	r3, [r7, #20]
    18c0:	460a      	mov	r2, r1
    18c2:	69b9      	ldr	r1, [r7, #24]
    18c4:	69f8      	ldr	r0, [r7, #28]
    18c6:	4c07      	ldr	r4, [pc, #28]	; (18e4 <TEE_BigIntConvertToFMM+0x60>)
    18c8:	592c      	ldr	r4, [r5, r4]
    18ca:	47a0      	blx	r4
/home/rahulmahdev/devel/optee/optee_os/lib/libutee/tee_api_arith.c:558
    18cc:	f107 0720 	add.w	r7, r7, #32
    18d0:	46bd      	mov	sp, r7
    18d2:	e9dd 4500 	ldrd	r4, r5, [sp]
    18d6:	b002      	add	sp, #8
    18d8:	bd80      	pop	{r7, pc}
    18da:	bf00      	nop
    18dc:	0000aca2 	.word	0x0000aca2
    18e0:	0000b7be 	.word	0x0000b7be
    18e4:	00000034 	.word	0x00000034

000018e8 <TEE_BigIntConvertFromFMM>:
TEE_BigIntConvertFromFMM():
/home/rahulmahdev/devel/optee/optee_os/lib/libutee/tee_api_arith.c:567
    18e8:	e96d 4504 	strd	r4, r5, [sp, #-16]!
    18ec:	e9cd 7e02 	strd	r7, lr, [sp, #8]
    18f0:	b08c      	sub	sp, #48	; 0x30
    18f2:	af02      	add	r7, sp, #8
    18f4:	60f8      	str	r0, [r7, #12]
    18f6:	60b9      	str	r1, [r7, #8]
    18f8:	607a      	str	r2, [r7, #4]
    18fa:	603b      	str	r3, [r7, #0]
    18fc:	4c1e      	ldr	r4, [pc, #120]	; (1978 <TEE_BigIntConvertFromFMM+0x90>)
    18fe:	447c      	add	r4, pc
/home/rahulmahdev/devel/optee/optee_os/lib/libutee/tee_api_arith.c:568
    1900:	68fb      	ldr	r3, [r7, #12]
    1902:	627b      	str	r3, [r7, #36]	; 0x24
/home/rahulmahdev/devel/optee/optee_os/lib/libutee/tee_api_arith.c:569
    1904:	68bb      	ldr	r3, [r7, #8]
    1906:	623b      	str	r3, [r7, #32]
/home/rahulmahdev/devel/optee/optee_os/lib/libutee/tee_api_arith.c:570
    1908:	687b      	ldr	r3, [r7, #4]
    190a:	61fb      	str	r3, [r7, #28]
/home/rahulmahdev/devel/optee/optee_os/lib/libutee/tee_api_arith.c:571
    190c:	683b      	ldr	r3, [r7, #0]
    190e:	61bb      	str	r3, [r7, #24]
/home/rahulmahdev/devel/optee/optee_os/lib/libutee/tee_api_arith.c:579
    1910:	4b1a      	ldr	r3, [pc, #104]	; (197c <TEE_BigIntConvertFromFMM+0x94>)
    1912:	447b      	add	r3, pc
    1914:	681a      	ldr	r2, [r3, #0]
    1916:	f107 0314 	add.w	r3, r7, #20
    191a:	4611      	mov	r1, r2
    191c:	4618      	mov	r0, r3
    191e:	4b18      	ldr	r3, [pc, #96]	; (1980 <TEE_BigIntConvertFromFMM+0x98>)
    1920:	58e3      	ldr	r3, [r4, r3]
    1922:	4798      	blx	r3
/home/rahulmahdev/devel/optee/optee_os/lib/libutee/tee_api_arith.c:582
    1924:	697d      	ldr	r5, [r7, #20]
    1926:	4b17      	ldr	r3, [pc, #92]	; (1984 <TEE_BigIntConvertFromFMM+0x9c>)
    1928:	58e3      	ldr	r3, [r4, r3]
    192a:	4798      	blx	r3
    192c:	4601      	mov	r1, r0
    192e:	69bb      	ldr	r3, [r7, #24]
    1930:	689b      	ldr	r3, [r3, #8]
    1932:	4a15      	ldr	r2, [pc, #84]	; (1988 <TEE_BigIntConvertFromFMM+0xa0>)
    1934:	447a      	add	r2, pc
    1936:	6812      	ldr	r2, [r2, #0]
    1938:	9201      	str	r2, [sp, #4]
    193a:	9300      	str	r3, [sp, #0]
    193c:	69fb      	ldr	r3, [r7, #28]
    193e:	6a3a      	ldr	r2, [r7, #32]
    1940:	4628      	mov	r0, r5
    1942:	4d12      	ldr	r5, [pc, #72]	; (198c <TEE_BigIntConvertFromFMM+0xa4>)
    1944:	5965      	ldr	r5, [r4, r5]
    1946:	47a8      	blx	r5
/home/rahulmahdev/devel/optee/optee_os/lib/libutee/tee_api_arith.c:585
    1948:	697b      	ldr	r3, [r7, #20]
    194a:	4619      	mov	r1, r3
    194c:	6a78      	ldr	r0, [r7, #36]	; 0x24
    194e:	4b10      	ldr	r3, [pc, #64]	; (1990 <TEE_BigIntConvertFromFMM+0xa8>)
    1950:	58e3      	ldr	r3, [r4, r3]
    1952:	4798      	blx	r3
/home/rahulmahdev/devel/optee/optee_os/lib/libutee/tee_api_arith.c:586
    1954:	4b0f      	ldr	r3, [pc, #60]	; (1994 <TEE_BigIntConvertFromFMM+0xac>)
    1956:	447b      	add	r3, pc
    1958:	681a      	ldr	r2, [r3, #0]
    195a:	f107 0314 	add.w	r3, r7, #20
    195e:	4611      	mov	r1, r2
    1960:	4618      	mov	r0, r3
    1962:	4b0d      	ldr	r3, [pc, #52]	; (1998 <TEE_BigIntConvertFromFMM+0xb0>)
    1964:	58e3      	ldr	r3, [r4, r3]
    1966:	4798      	blx	r3
/home/rahulmahdev/devel/optee/optee_os/lib/libutee/tee_api_arith.c:587
    1968:	f107 0728 	add.w	r7, r7, #40	; 0x28
    196c:	46bd      	mov	sp, r7
    196e:	e9dd 4500 	ldrd	r4, r5, [sp]
    1972:	b002      	add	sp, #8
    1974:	bd80      	pop	{r7, pc}
    1976:	bf00      	nop
    1978:	0000ac3e 	.word	0x0000ac3e
    197c:	0000b762 	.word	0x0000b762
    1980:	000000dc 	.word	0x000000dc
    1984:	000001b8 	.word	0x000001b8
    1988:	0000b740 	.word	0x0000b740
    198c:	00000034 	.word	0x00000034
    1990:	00000010 	.word	0x00000010
    1994:	0000b71e 	.word	0x0000b71e
    1998:	00000094 	.word	0x00000094

0000199c <TEE_BigIntComputeFMM>:
TEE_BigIntComputeFMM():
/home/rahulmahdev/devel/optee/optee_os/lib/libutee/tee_api_arith.c:597
    199c:	e96d 4504 	strd	r4, r5, [sp, #-16]!
    19a0:	e9cd 7e02 	strd	r7, lr, [sp, #8]
    19a4:	b08c      	sub	sp, #48	; 0x30
    19a6:	af02      	add	r7, sp, #8
    19a8:	60f8      	str	r0, [r7, #12]
    19aa:	60b9      	str	r1, [r7, #8]
    19ac:	607a      	str	r2, [r7, #4]
    19ae:	603b      	str	r3, [r7, #0]
    19b0:	4d10      	ldr	r5, [pc, #64]	; (19f4 <TEE_BigIntComputeFMM+0x58>)
    19b2:	447d      	add	r5, pc
/home/rahulmahdev/devel/optee/optee_os/lib/libutee/tee_api_arith.c:598
    19b4:	68fb      	ldr	r3, [r7, #12]
    19b6:	627b      	str	r3, [r7, #36]	; 0x24
/home/rahulmahdev/devel/optee/optee_os/lib/libutee/tee_api_arith.c:599
    19b8:	68bb      	ldr	r3, [r7, #8]
    19ba:	623b      	str	r3, [r7, #32]
/home/rahulmahdev/devel/optee/optee_os/lib/libutee/tee_api_arith.c:600
    19bc:	687b      	ldr	r3, [r7, #4]
    19be:	61fb      	str	r3, [r7, #28]
/home/rahulmahdev/devel/optee/optee_os/lib/libutee/tee_api_arith.c:601
    19c0:	683b      	ldr	r3, [r7, #0]
    19c2:	61bb      	str	r3, [r7, #24]
/home/rahulmahdev/devel/optee/optee_os/lib/libutee/tee_api_arith.c:602
    19c4:	6bbb      	ldr	r3, [r7, #56]	; 0x38
    19c6:	617b      	str	r3, [r7, #20]
/home/rahulmahdev/devel/optee/optee_os/lib/libutee/tee_api_arith.c:604
    19c8:	697b      	ldr	r3, [r7, #20]
    19ca:	689b      	ldr	r3, [r3, #8]
    19cc:	4a0a      	ldr	r2, [pc, #40]	; (19f8 <TEE_BigIntComputeFMM+0x5c>)
    19ce:	447a      	add	r2, pc
    19d0:	6812      	ldr	r2, [r2, #0]
    19d2:	9201      	str	r2, [sp, #4]
    19d4:	9300      	str	r3, [sp, #0]
    19d6:	69bb      	ldr	r3, [r7, #24]
    19d8:	69fa      	ldr	r2, [r7, #28]
    19da:	6a39      	ldr	r1, [r7, #32]
    19dc:	6a78      	ldr	r0, [r7, #36]	; 0x24
    19de:	4c07      	ldr	r4, [pc, #28]	; (19fc <TEE_BigIntComputeFMM+0x60>)
    19e0:	592c      	ldr	r4, [r5, r4]
    19e2:	47a0      	blx	r4
/home/rahulmahdev/devel/optee/optee_os/lib/libutee/tee_api_arith.c:606
    19e4:	f107 0728 	add.w	r7, r7, #40	; 0x28
    19e8:	46bd      	mov	sp, r7
    19ea:	e9dd 4500 	ldrd	r4, r5, [sp]
    19ee:	b002      	add	sp, #8
    19f0:	bd80      	pop	{r7, pc}
    19f2:	bf00      	nop
    19f4:	0000ab8a 	.word	0x0000ab8a
    19f8:	0000b6a6 	.word	0x0000b6a6
    19fc:	00000034 	.word	0x00000034

00001a00 <TEE_Panic>:
TEE_Panic():
/home/rahulmahdev/devel/optee/optee_os/lib/libutee/tee_api.c:40
    1a00:	e96d 7e02 	strd	r7, lr, [sp, #-8]!
    1a04:	b082      	sub	sp, #8
    1a06:	af00      	add	r7, sp, #0
    1a08:	6078      	str	r0, [r7, #4]
    1a0a:	4a03      	ldr	r2, [pc, #12]	; (1a18 <TEE_Panic+0x18>)
    1a0c:	447a      	add	r2, pc
/home/rahulmahdev/devel/optee/optee_os/lib/libutee/tee_api.c:41
    1a0e:	6878      	ldr	r0, [r7, #4]
    1a10:	4b02      	ldr	r3, [pc, #8]	; (1a1c <TEE_Panic+0x1c>)
    1a12:	58d3      	ldr	r3, [r2, r3]
    1a14:	4798      	blx	r3
    1a16:	bf00      	nop
    1a18:	0000ab30 	.word	0x0000ab30
    1a1c:	00000180 	.word	0x00000180

00001a20 <TEE_OpenTASession>:
TEE_OpenTASession():
/home/rahulmahdev/devel/optee/optee_os/lib/libutee/tee_api.c:51
    1a20:	e96d 4504 	strd	r4, r5, [sp, #-16]!
    1a24:	e9cd 7e02 	strd	r7, lr, [sp, #8]
    1a28:	b088      	sub	sp, #32
    1a2a:	af02      	add	r7, sp, #8
    1a2c:	60f8      	str	r0, [r7, #12]
    1a2e:	60b9      	str	r1, [r7, #8]
    1a30:	607a      	str	r2, [r7, #4]
    1a32:	603b      	str	r3, [r7, #0]
    1a34:	4d0e      	ldr	r5, [pc, #56]	; (1a70 <TEE_OpenTASession+0x50>)
    1a36:	447d      	add	r5, pc
/home/rahulmahdev/devel/optee/optee_os/lib/libutee/tee_api.c:54
    1a38:	6afb      	ldr	r3, [r7, #44]	; 0x2c
    1a3a:	9301      	str	r3, [sp, #4]
    1a3c:	6abb      	ldr	r3, [r7, #40]	; 0x28
    1a3e:	9300      	str	r3, [sp, #0]
    1a40:	683b      	ldr	r3, [r7, #0]
    1a42:	687a      	ldr	r2, [r7, #4]
    1a44:	68b9      	ldr	r1, [r7, #8]
    1a46:	68f8      	ldr	r0, [r7, #12]
    1a48:	4c0a      	ldr	r4, [pc, #40]	; (1a74 <TEE_OpenTASession+0x54>)
    1a4a:	592c      	ldr	r4, [r5, r4]
    1a4c:	47a0      	blx	r4
    1a4e:	6178      	str	r0, [r7, #20]
/home/rahulmahdev/devel/optee/optee_os/lib/libutee/tee_api.c:61
    1a50:	697b      	ldr	r3, [r7, #20]
    1a52:	2b00      	cmp	r3, #0
    1a54:	d003      	beq.n	1a5e <TEE_OpenTASession+0x3e>
/home/rahulmahdev/devel/optee/optee_os/lib/libutee/tee_api.c:62
    1a56:	6abb      	ldr	r3, [r7, #40]	; 0x28
    1a58:	f04f 0200 	mov.w	r2, #0
    1a5c:	601a      	str	r2, [r3, #0]
/home/rahulmahdev/devel/optee/optee_os/lib/libutee/tee_api.c:64
    1a5e:	697b      	ldr	r3, [r7, #20]
/home/rahulmahdev/devel/optee/optee_os/lib/libutee/tee_api.c:65
    1a60:	4618      	mov	r0, r3
    1a62:	f107 0718 	add.w	r7, r7, #24
    1a66:	46bd      	mov	sp, r7
    1a68:	e9dd 4500 	ldrd	r4, r5, [sp]
    1a6c:	b002      	add	sp, #8
    1a6e:	bd80      	pop	{r7, pc}
    1a70:	0000ab06 	.word	0x0000ab06
    1a74:	0000018c 	.word	0x0000018c

00001a78 <TEE_CloseTASession>:
TEE_CloseTASession():
/home/rahulmahdev/devel/optee/optee_os/lib/libutee/tee_api.c:68
    1a78:	e96d 7e02 	strd	r7, lr, [sp, #-8]!
    1a7c:	b084      	sub	sp, #16
    1a7e:	af00      	add	r7, sp, #0
    1a80:	6078      	str	r0, [r7, #4]
    1a82:	4a0a      	ldr	r2, [pc, #40]	; (1aac <TEE_CloseTASession+0x34>)
    1a84:	447a      	add	r2, pc
/home/rahulmahdev/devel/optee/optee_os/lib/libutee/tee_api.c:69
    1a86:	687b      	ldr	r3, [r7, #4]
    1a88:	2b00      	cmp	r3, #0
    1a8a:	d00b      	beq.n	1aa4 <TEE_CloseTASession+0x2c>
/home/rahulmahdev/devel/optee/optee_os/lib/libutee/tee_api.c:70
    1a8c:	6878      	ldr	r0, [r7, #4]
    1a8e:	4b08      	ldr	r3, [pc, #32]	; (1ab0 <TEE_CloseTASession+0x38>)
    1a90:	58d3      	ldr	r3, [r2, r3]
    1a92:	4798      	blx	r3
    1a94:	60f8      	str	r0, [r7, #12]
/home/rahulmahdev/devel/optee/optee_os/lib/libutee/tee_api.c:71
    1a96:	68fb      	ldr	r3, [r7, #12]
    1a98:	2b00      	cmp	r3, #0
    1a9a:	d003      	beq.n	1aa4 <TEE_CloseTASession+0x2c>
/home/rahulmahdev/devel/optee/optee_os/lib/libutee/tee_api.c:72
    1a9c:	68f8      	ldr	r0, [r7, #12]
    1a9e:	4b05      	ldr	r3, [pc, #20]	; (1ab4 <TEE_CloseTASession+0x3c>)
    1aa0:	447b      	add	r3, pc
    1aa2:	4798      	blx	r3
/home/rahulmahdev/devel/optee/optee_os/lib/libutee/tee_api.c:74
    1aa4:	f107 0710 	add.w	r7, r7, #16
    1aa8:	46bd      	mov	sp, r7
    1aaa:	bd80      	pop	{r7, pc}
    1aac:	0000aab8 	.word	0x0000aab8
    1ab0:	000000f0 	.word	0x000000f0
    1ab4:	ffffff5d 	.word	0xffffff5d

00001ab8 <TEE_InvokeTACommand>:
TEE_InvokeTACommand():
/home/rahulmahdev/devel/optee/optee_os/lib/libutee/tee_api.c:80
    1ab8:	e96d 4504 	strd	r4, r5, [sp, #-16]!
    1abc:	e9cd 7e02 	strd	r7, lr, [sp, #8]
    1ac0:	b088      	sub	sp, #32
    1ac2:	af02      	add	r7, sp, #8
    1ac4:	60f8      	str	r0, [r7, #12]
    1ac6:	60b9      	str	r1, [r7, #8]
    1ac8:	607a      	str	r2, [r7, #4]
    1aca:	603b      	str	r3, [r7, #0]
    1acc:	4d1b      	ldr	r5, [pc, #108]	; (1b3c <TEE_InvokeTACommand+0x84>)
    1ace:	447d      	add	r5, pc
/home/rahulmahdev/devel/optee/optee_os/lib/libutee/tee_api.c:84
    1ad0:	f107 0310 	add.w	r3, r7, #16
    1ad4:	9301      	str	r3, [sp, #4]
    1ad6:	6abb      	ldr	r3, [r7, #40]	; 0x28
    1ad8:	9300      	str	r3, [sp, #0]
    1ada:	683b      	ldr	r3, [r7, #0]
    1adc:	687a      	ldr	r2, [r7, #4]
    1ade:	68b9      	ldr	r1, [r7, #8]
    1ae0:	68f8      	ldr	r0, [r7, #12]
    1ae2:	4c17      	ldr	r4, [pc, #92]	; (1b40 <TEE_InvokeTACommand+0x88>)
    1ae4:	592c      	ldr	r4, [r5, r4]
    1ae6:	47a0      	blx	r4
    1ae8:	6178      	str	r0, [r7, #20]
/home/rahulmahdev/devel/optee/optee_os/lib/libutee/tee_api.c:88
    1aea:	6afb      	ldr	r3, [r7, #44]	; 0x2c
    1aec:	2b00      	cmp	r3, #0
    1aee:	d002      	beq.n	1af6 <TEE_InvokeTACommand+0x3e>
/home/rahulmahdev/devel/optee/optee_os/lib/libutee/tee_api.c:89
    1af0:	693a      	ldr	r2, [r7, #16]
    1af2:	6afb      	ldr	r3, [r7, #44]	; 0x2c
    1af4:	601a      	str	r2, [r3, #0]
/home/rahulmahdev/devel/optee/optee_os/lib/libutee/tee_api.c:91
    1af6:	693b      	ldr	r3, [r7, #16]
    1af8:	2b04      	cmp	r3, #4
    1afa:	d101      	bne.n	1b00 <TEE_InvokeTACommand+0x48>
/home/rahulmahdev/devel/optee/optee_os/lib/libutee/tee_api.c:92
    1afc:	697b      	ldr	r3, [r7, #20]
    1afe:	e015      	b.n	1b2c <TEE_InvokeTACommand+0x74>
/home/rahulmahdev/devel/optee/optee_os/lib/libutee/tee_api.c:94
    1b00:	697b      	ldr	r3, [r7, #20]
    1b02:	2b00      	cmp	r3, #0
    1b04:	d011      	beq.n	1b2a <TEE_InvokeTACommand+0x72>
/home/rahulmahdev/devel/optee/optee_os/lib/libutee/tee_api.c:94 (discriminator 1)
    1b06:	697a      	ldr	r2, [r7, #20]
    1b08:	f04f 030c 	mov.w	r3, #12
    1b0c:	f6cf 73ff 	movt	r3, #65535	; 0xffff
    1b10:	429a      	cmp	r2, r3
    1b12:	d00a      	beq.n	1b2a <TEE_InvokeTACommand+0x72>
/home/rahulmahdev/devel/optee/optee_os/lib/libutee/tee_api.c:95
    1b14:	697a      	ldr	r2, [r7, #20]
    1b16:	f243 0324 	movw	r3, #12324	; 0x3024
    1b1a:	f6cf 73ff 	movt	r3, #65535	; 0xffff
    1b1e:	429a      	cmp	r2, r3
    1b20:	d003      	beq.n	1b2a <TEE_InvokeTACommand+0x72>
/home/rahulmahdev/devel/optee/optee_os/lib/libutee/tee_api.c:97
    1b22:	6978      	ldr	r0, [r7, #20]
    1b24:	4b07      	ldr	r3, [pc, #28]	; (1b44 <TEE_InvokeTACommand+0x8c>)
    1b26:	447b      	add	r3, pc
    1b28:	4798      	blx	r3
/home/rahulmahdev/devel/optee/optee_os/lib/libutee/tee_api.c:99
    1b2a:	697b      	ldr	r3, [r7, #20]
/home/rahulmahdev/devel/optee/optee_os/lib/libutee/tee_api.c:100 (discriminator 1)
    1b2c:	4618      	mov	r0, r3
    1b2e:	f107 0718 	add.w	r7, r7, #24
    1b32:	46bd      	mov	sp, r7
    1b34:	e9dd 4500 	ldrd	r4, r5, [sp]
    1b38:	b002      	add	sp, #8
    1b3a:	bd80      	pop	{r7, pc}
    1b3c:	0000aa6e 	.word	0x0000aa6e
    1b40:	000001a0 	.word	0x000001a0
    1b44:	fffffed7 	.word	0xfffffed7

00001b48 <TEE_GetCancellationFlag>:
TEE_GetCancellationFlag():
/home/rahulmahdev/devel/optee/optee_os/lib/libutee/tee_api.c:105
    1b48:	e96d 7e02 	strd	r7, lr, [sp, #-8]!
    1b4c:	b082      	sub	sp, #8
    1b4e:	af00      	add	r7, sp, #0
    1b50:	4a0a      	ldr	r2, [pc, #40]	; (1b7c <TEE_GetCancellationFlag+0x34>)
    1b52:	447a      	add	r2, pc
/home/rahulmahdev/devel/optee/optee_os/lib/libutee/tee_api.c:107
    1b54:	f107 0303 	add.w	r3, r7, #3
    1b58:	4618      	mov	r0, r3
    1b5a:	4b09      	ldr	r3, [pc, #36]	; (1b80 <TEE_GetCancellationFlag+0x38>)
    1b5c:	58d3      	ldr	r3, [r2, r3]
    1b5e:	4798      	blx	r3
    1b60:	6078      	str	r0, [r7, #4]
/home/rahulmahdev/devel/optee/optee_os/lib/libutee/tee_api.c:108
    1b62:	687b      	ldr	r3, [r7, #4]
    1b64:	2b00      	cmp	r3, #0
    1b66:	d002      	beq.n	1b6e <TEE_GetCancellationFlag+0x26>
/home/rahulmahdev/devel/optee/optee_os/lib/libutee/tee_api.c:109
    1b68:	f04f 0300 	mov.w	r3, #0
    1b6c:	70fb      	strb	r3, [r7, #3]
/home/rahulmahdev/devel/optee/optee_os/lib/libutee/tee_api.c:110
    1b6e:	78fb      	ldrb	r3, [r7, #3]
/home/rahulmahdev/devel/optee/optee_os/lib/libutee/tee_api.c:111
    1b70:	4618      	mov	r0, r3
    1b72:	f107 0708 	add.w	r7, r7, #8
    1b76:	46bd      	mov	sp, r7
    1b78:	bd80      	pop	{r7, pc}
    1b7a:	bf00      	nop
    1b7c:	0000a9ea 	.word	0x0000a9ea
    1b80:	00000148 	.word	0x00000148

00001b84 <TEE_UnmaskCancellation>:
TEE_UnmaskCancellation():
/home/rahulmahdev/devel/optee/optee_os/lib/libutee/tee_api.c:114
    1b84:	e96d 7e02 	strd	r7, lr, [sp, #-8]!
    1b88:	b082      	sub	sp, #8
    1b8a:	af00      	add	r7, sp, #0
    1b8c:	4a0a      	ldr	r2, [pc, #40]	; (1bb8 <TEE_UnmaskCancellation+0x34>)
    1b8e:	447a      	add	r2, pc
/home/rahulmahdev/devel/optee/optee_os/lib/libutee/tee_api.c:116
    1b90:	f107 0303 	add.w	r3, r7, #3
    1b94:	4618      	mov	r0, r3
    1b96:	4b09      	ldr	r3, [pc, #36]	; (1bbc <TEE_UnmaskCancellation+0x38>)
    1b98:	58d3      	ldr	r3, [r2, r3]
    1b9a:	4798      	blx	r3
    1b9c:	6078      	str	r0, [r7, #4]
/home/rahulmahdev/devel/optee/optee_os/lib/libutee/tee_api.c:118
    1b9e:	687b      	ldr	r3, [r7, #4]
    1ba0:	2b00      	cmp	r3, #0
    1ba2:	d003      	beq.n	1bac <TEE_UnmaskCancellation+0x28>
/home/rahulmahdev/devel/optee/optee_os/lib/libutee/tee_api.c:119
    1ba4:	6878      	ldr	r0, [r7, #4]
    1ba6:	4b06      	ldr	r3, [pc, #24]	; (1bc0 <TEE_UnmaskCancellation+0x3c>)
    1ba8:	447b      	add	r3, pc
    1baa:	4798      	blx	r3
/home/rahulmahdev/devel/optee/optee_os/lib/libutee/tee_api.c:120
    1bac:	78fb      	ldrb	r3, [r7, #3]
/home/rahulmahdev/devel/optee/optee_os/lib/libutee/tee_api.c:121
    1bae:	4618      	mov	r0, r3
    1bb0:	f107 0708 	add.w	r7, r7, #8
    1bb4:	46bd      	mov	sp, r7
    1bb6:	bd80      	pop	{r7, pc}
    1bb8:	0000a9ae 	.word	0x0000a9ae
    1bbc:	000001b0 	.word	0x000001b0
    1bc0:	fffffe55 	.word	0xfffffe55

00001bc4 <TEE_MaskCancellation>:
TEE_MaskCancellation():
/home/rahulmahdev/devel/optee/optee_os/lib/libutee/tee_api.c:124
    1bc4:	e96d 7e02 	strd	r7, lr, [sp, #-8]!
    1bc8:	b082      	sub	sp, #8
    1bca:	af00      	add	r7, sp, #0
    1bcc:	4a0a      	ldr	r2, [pc, #40]	; (1bf8 <TEE_MaskCancellation+0x34>)
    1bce:	447a      	add	r2, pc
/home/rahulmahdev/devel/optee/optee_os/lib/libutee/tee_api.c:126
    1bd0:	f107 0303 	add.w	r3, r7, #3
    1bd4:	4618      	mov	r0, r3
    1bd6:	4b09      	ldr	r3, [pc, #36]	; (1bfc <TEE_MaskCancellation+0x38>)
    1bd8:	58d3      	ldr	r3, [r2, r3]
    1bda:	4798      	blx	r3
    1bdc:	6078      	str	r0, [r7, #4]
/home/rahulmahdev/devel/optee/optee_os/lib/libutee/tee_api.c:128
    1bde:	687b      	ldr	r3, [r7, #4]
    1be0:	2b00      	cmp	r3, #0
    1be2:	d003      	beq.n	1bec <TEE_MaskCancellation+0x28>
/home/rahulmahdev/devel/optee/optee_os/lib/libutee/tee_api.c:129
    1be4:	6878      	ldr	r0, [r7, #4]
    1be6:	4b06      	ldr	r3, [pc, #24]	; (1c00 <TEE_MaskCancellation+0x3c>)
    1be8:	447b      	add	r3, pc
    1bea:	4798      	blx	r3
/home/rahulmahdev/devel/optee/optee_os/lib/libutee/tee_api.c:130
    1bec:	78fb      	ldrb	r3, [r7, #3]
/home/rahulmahdev/devel/optee/optee_os/lib/libutee/tee_api.c:131
    1bee:	4618      	mov	r0, r3
    1bf0:	f107 0708 	add.w	r7, r7, #8
    1bf4:	46bd      	mov	sp, r7
    1bf6:	bd80      	pop	{r7, pc}
    1bf8:	0000a96e 	.word	0x0000a96e
    1bfc:	000000cc 	.word	0x000000cc
    1c00:	fffffe15 	.word	0xfffffe15

00001c04 <TEE_CheckMemoryAccessRights>:
TEE_CheckMemoryAccessRights():
/home/rahulmahdev/devel/optee/optee_os/lib/libutee/tee_api.c:137
    1c04:	f84d 4d0c 	str.w	r4, [sp, #-12]!
    1c08:	e9cd 7e01 	strd	r7, lr, [sp, #4]
    1c0c:	b087      	sub	sp, #28
    1c0e:	af00      	add	r7, sp, #0
    1c10:	60f8      	str	r0, [r7, #12]
    1c12:	60b9      	str	r1, [r7, #8]
    1c14:	607a      	str	r2, [r7, #4]
    1c16:	4c10      	ldr	r4, [pc, #64]	; (1c58 <TEE_CheckMemoryAccessRights+0x54>)
    1c18:	447c      	add	r4, pc
/home/rahulmahdev/devel/optee/optee_os/lib/libutee/tee_api.c:140
    1c1a:	687b      	ldr	r3, [r7, #4]
    1c1c:	2b00      	cmp	r3, #0
    1c1e:	d102      	bne.n	1c26 <TEE_CheckMemoryAccessRights+0x22>
/home/rahulmahdev/devel/optee/optee_os/lib/libutee/tee_api.c:141
    1c20:	f04f 0300 	mov.w	r3, #0
    1c24:	e00e      	b.n	1c44 <TEE_CheckMemoryAccessRights+0x40>
/home/rahulmahdev/devel/optee/optee_os/lib/libutee/tee_api.c:144
    1c26:	687a      	ldr	r2, [r7, #4]
    1c28:	68b9      	ldr	r1, [r7, #8]
    1c2a:	68f8      	ldr	r0, [r7, #12]
    1c2c:	4b0b      	ldr	r3, [pc, #44]	; (1c5c <TEE_CheckMemoryAccessRights+0x58>)
    1c2e:	58e3      	ldr	r3, [r4, r3]
    1c30:	4798      	blx	r3
    1c32:	6178      	str	r0, [r7, #20]
/home/rahulmahdev/devel/optee/optee_os/lib/libutee/tee_api.c:145
    1c34:	697b      	ldr	r3, [r7, #20]
    1c36:	2b00      	cmp	r3, #0
    1c38:	d000      	beq.n	1c3c <TEE_CheckMemoryAccessRights+0x38>
/home/rahulmahdev/devel/optee/optee_os/lib/libutee/tee_api.c:146
    1c3a:	e002      	b.n	1c42 <TEE_CheckMemoryAccessRights+0x3e>
/home/rahulmahdev/devel/optee/optee_os/lib/libutee/tee_api.c:153
    1c3c:	f04f 0300 	mov.w	r3, #0
    1c40:	617b      	str	r3, [r7, #20]
/home/rahulmahdev/devel/optee/optee_os/lib/libutee/tee_api.c:155
    1c42:	697b      	ldr	r3, [r7, #20]
/home/rahulmahdev/devel/optee/optee_os/lib/libutee/tee_api.c:156
    1c44:	4618      	mov	r0, r3
    1c46:	f107 071c 	add.w	r7, r7, #28
    1c4a:	46bd      	mov	sp, r7
    1c4c:	e9dd 4700 	ldrd	r4, r7, [sp]
    1c50:	b002      	add	sp, #8
    1c52:	f85d fb04 	ldr.w	pc, [sp], #4
    1c56:	bf00      	nop
    1c58:	0000a924 	.word	0x0000a924
    1c5c:	000001b4 	.word	0x000001b4

00001c60 <TEE_SetInstanceData>:
TEE_SetInstanceData():
/home/rahulmahdev/devel/optee/optee_os/lib/libutee/tee_api.c:159
    1c60:	f84d 7d04 	str.w	r7, [sp, #-4]!
    1c64:	b083      	sub	sp, #12
    1c66:	af00      	add	r7, sp, #0
    1c68:	6078      	str	r0, [r7, #4]
/home/rahulmahdev/devel/optee/optee_os/lib/libutee/tee_api.c:160
    1c6a:	4b05      	ldr	r3, [pc, #20]	; (1c80 <TEE_SetInstanceData+0x20>)
    1c6c:	447b      	add	r3, pc
    1c6e:	461a      	mov	r2, r3
    1c70:	687b      	ldr	r3, [r7, #4]
    1c72:	6013      	str	r3, [r2, #0]
/home/rahulmahdev/devel/optee/optee_os/lib/libutee/tee_api.c:161
    1c74:	f107 070c 	add.w	r7, r7, #12
    1c78:	46bd      	mov	sp, r7
    1c7a:	f85d 7b04 	ldr.w	r7, [sp], #4
    1c7e:	4770      	bx	lr
    1c80:	00014f34 	.word	0x00014f34

00001c84 <TEE_GetInstanceData>:
TEE_GetInstanceData():
/home/rahulmahdev/devel/optee/optee_os/lib/libutee/tee_api.c:164
    1c84:	f84d 7d04 	str.w	r7, [sp, #-4]!
    1c88:	af00      	add	r7, sp, #0
/home/rahulmahdev/devel/optee/optee_os/lib/libutee/tee_api.c:165
    1c8a:	4b04      	ldr	r3, [pc, #16]	; (1c9c <TEE_GetInstanceData+0x18>)
    1c8c:	447b      	add	r3, pc
    1c8e:	681b      	ldr	r3, [r3, #0]
/home/rahulmahdev/devel/optee/optee_os/lib/libutee/tee_api.c:166
    1c90:	4618      	mov	r0, r3
    1c92:	46bd      	mov	sp, r7
    1c94:	f85d 7b04 	ldr.w	r7, [sp], #4
    1c98:	4770      	bx	lr
    1c9a:	bf00      	nop
    1c9c:	00014f14 	.word	0x00014f14

00001ca0 <TEE_MemMove>:
TEE_MemMove():
/home/rahulmahdev/devel/optee/optee_os/lib/libutee/tee_api.c:169
    1ca0:	f84d 4d0c 	str.w	r4, [sp, #-12]!
    1ca4:	e9cd 7e01 	strd	r7, lr, [sp, #4]
    1ca8:	b085      	sub	sp, #20
    1caa:	af00      	add	r7, sp, #0
    1cac:	60f8      	str	r0, [r7, #12]
    1cae:	60b9      	str	r1, [r7, #8]
    1cb0:	607a      	str	r2, [r7, #4]
    1cb2:	4c09      	ldr	r4, [pc, #36]	; (1cd8 <TEE_MemMove+0x38>)
    1cb4:	447c      	add	r4, pc
/home/rahulmahdev/devel/optee/optee_os/lib/libutee/tee_api.c:170
    1cb6:	687a      	ldr	r2, [r7, #4]
    1cb8:	68b9      	ldr	r1, [r7, #8]
    1cba:	68f8      	ldr	r0, [r7, #12]
    1cbc:	4b07      	ldr	r3, [pc, #28]	; (1cdc <TEE_MemMove+0x3c>)
    1cbe:	58e3      	ldr	r3, [r4, r3]
    1cc0:	4798      	blx	r3
    1cc2:	4603      	mov	r3, r0
/home/rahulmahdev/devel/optee/optee_os/lib/libutee/tee_api.c:171
    1cc4:	4618      	mov	r0, r3
    1cc6:	f107 0714 	add.w	r7, r7, #20
    1cca:	46bd      	mov	sp, r7
    1ccc:	e9dd 4700 	ldrd	r4, r7, [sp]
    1cd0:	b002      	add	sp, #8
    1cd2:	f85d fb04 	ldr.w	pc, [sp], #4
    1cd6:	bf00      	nop
    1cd8:	0000a888 	.word	0x0000a888
    1cdc:	0000003c 	.word	0x0000003c

00001ce0 <TEE_MemCompare>:
TEE_MemCompare():
/home/rahulmahdev/devel/optee/optee_os/lib/libutee/tee_api.c:174
    1ce0:	f84d 4d0c 	str.w	r4, [sp, #-12]!
    1ce4:	e9cd 7e01 	strd	r7, lr, [sp, #4]
    1ce8:	b085      	sub	sp, #20
    1cea:	af00      	add	r7, sp, #0
    1cec:	60f8      	str	r0, [r7, #12]
    1cee:	60b9      	str	r1, [r7, #8]
    1cf0:	607a      	str	r2, [r7, #4]
    1cf2:	4c09      	ldr	r4, [pc, #36]	; (1d18 <TEE_MemCompare+0x38>)
    1cf4:	447c      	add	r4, pc
/home/rahulmahdev/devel/optee/optee_os/lib/libutee/tee_api.c:175
    1cf6:	687a      	ldr	r2, [r7, #4]
    1cf8:	68b9      	ldr	r1, [r7, #8]
    1cfa:	68f8      	ldr	r0, [r7, #12]
    1cfc:	4b07      	ldr	r3, [pc, #28]	; (1d1c <TEE_MemCompare+0x3c>)
    1cfe:	58e3      	ldr	r3, [r4, r3]
    1d00:	4798      	blx	r3
    1d02:	4603      	mov	r3, r0
/home/rahulmahdev/devel/optee/optee_os/lib/libutee/tee_api.c:176
    1d04:	4618      	mov	r0, r3
    1d06:	f107 0714 	add.w	r7, r7, #20
    1d0a:	46bd      	mov	sp, r7
    1d0c:	e9dd 4700 	ldrd	r4, r7, [sp]
    1d10:	b002      	add	sp, #8
    1d12:	f85d fb04 	ldr.w	pc, [sp], #4
    1d16:	bf00      	nop
    1d18:	0000a848 	.word	0x0000a848
    1d1c:	00000100 	.word	0x00000100

00001d20 <TEE_MemFill>:
TEE_MemFill():
/home/rahulmahdev/devel/optee/optee_os/lib/libutee/tee_api.c:179
    1d20:	f84d 4d0c 	str.w	r4, [sp, #-12]!
    1d24:	e9cd 7e01 	strd	r7, lr, [sp, #4]
    1d28:	b085      	sub	sp, #20
    1d2a:	af00      	add	r7, sp, #0
    1d2c:	60f8      	str	r0, [r7, #12]
    1d2e:	60b9      	str	r1, [r7, #8]
    1d30:	607a      	str	r2, [r7, #4]
    1d32:	4c09      	ldr	r4, [pc, #36]	; (1d58 <TEE_MemFill+0x38>)
    1d34:	447c      	add	r4, pc
/home/rahulmahdev/devel/optee/optee_os/lib/libutee/tee_api.c:180
    1d36:	68bb      	ldr	r3, [r7, #8]
    1d38:	687a      	ldr	r2, [r7, #4]
    1d3a:	4619      	mov	r1, r3
    1d3c:	68f8      	ldr	r0, [r7, #12]
    1d3e:	4b07      	ldr	r3, [pc, #28]	; (1d5c <TEE_MemFill+0x3c>)
    1d40:	58e3      	ldr	r3, [r4, r3]
    1d42:	4798      	blx	r3
    1d44:	4603      	mov	r3, r0
/home/rahulmahdev/devel/optee/optee_os/lib/libutee/tee_api.c:181
    1d46:	4618      	mov	r0, r3
    1d48:	f107 0714 	add.w	r7, r7, #20
    1d4c:	46bd      	mov	sp, r7
    1d4e:	e9dd 4700 	ldrd	r4, r7, [sp]
    1d52:	b002      	add	sp, #8
    1d54:	f85d fb04 	ldr.w	pc, [sp], #4
    1d58:	0000a808 	.word	0x0000a808
    1d5c:	0000011c 	.word	0x0000011c

00001d60 <TEE_GetSystemTime>:
TEE_GetSystemTime():
/home/rahulmahdev/devel/optee/optee_os/lib/libutee/tee_api.c:186
    1d60:	e96d 7e02 	strd	r7, lr, [sp, #-8]!
    1d64:	b084      	sub	sp, #16
    1d66:	af00      	add	r7, sp, #0
    1d68:	6078      	str	r0, [r7, #4]
    1d6a:	4a0a      	ldr	r2, [pc, #40]	; (1d94 <TEE_GetSystemTime+0x34>)
    1d6c:	447a      	add	r2, pc
/home/rahulmahdev/devel/optee/optee_os/lib/libutee/tee_api.c:187
    1d6e:	6879      	ldr	r1, [r7, #4]
    1d70:	f04f 0000 	mov.w	r0, #0
    1d74:	4b08      	ldr	r3, [pc, #32]	; (1d98 <TEE_GetSystemTime+0x38>)
    1d76:	58d3      	ldr	r3, [r2, r3]
    1d78:	4798      	blx	r3
    1d7a:	60f8      	str	r0, [r7, #12]
/home/rahulmahdev/devel/optee/optee_os/lib/libutee/tee_api.c:189
    1d7c:	68fb      	ldr	r3, [r7, #12]
    1d7e:	2b00      	cmp	r3, #0
    1d80:	d004      	beq.n	1d8c <TEE_GetSystemTime+0x2c>
/home/rahulmahdev/devel/optee/optee_os/lib/libutee/tee_api.c:190
    1d82:	f04f 0000 	mov.w	r0, #0
    1d86:	4b05      	ldr	r3, [pc, #20]	; (1d9c <TEE_GetSystemTime+0x3c>)
    1d88:	447b      	add	r3, pc
    1d8a:	4798      	blx	r3
/home/rahulmahdev/devel/optee/optee_os/lib/libutee/tee_api.c:191
    1d8c:	f107 0710 	add.w	r7, r7, #16
    1d90:	46bd      	mov	sp, r7
    1d92:	bd80      	pop	{r7, pc}
    1d94:	0000a7d0 	.word	0x0000a7d0
    1d98:	000001ac 	.word	0x000001ac
    1d9c:	fffffc75 	.word	0xfffffc75

00001da0 <TEE_Wait>:
TEE_Wait():
/home/rahulmahdev/devel/optee/optee_os/lib/libutee/tee_api.c:194
    1da0:	e96d 7e02 	strd	r7, lr, [sp, #-8]!
    1da4:	b084      	sub	sp, #16
    1da6:	af00      	add	r7, sp, #0
    1da8:	6078      	str	r0, [r7, #4]
    1daa:	4a0d      	ldr	r2, [pc, #52]	; (1de0 <TEE_Wait+0x40>)
    1dac:	447a      	add	r2, pc
/home/rahulmahdev/devel/optee/optee_os/lib/libutee/tee_api.c:195
    1dae:	6878      	ldr	r0, [r7, #4]
    1db0:	4b0c      	ldr	r3, [pc, #48]	; (1de4 <TEE_Wait+0x44>)
    1db2:	58d3      	ldr	r3, [r2, r3]
    1db4:	4798      	blx	r3
    1db6:	60f8      	str	r0, [r7, #12]
/home/rahulmahdev/devel/optee/optee_os/lib/libutee/tee_api.c:197
    1db8:	68fb      	ldr	r3, [r7, #12]
    1dba:	2b00      	cmp	r3, #0
    1dbc:	d00a      	beq.n	1dd4 <TEE_Wait+0x34>
/home/rahulmahdev/devel/optee/optee_os/lib/libutee/tee_api.c:197 (discriminator 1)
    1dbe:	68fa      	ldr	r2, [r7, #12]
    1dc0:	f04f 0302 	mov.w	r3, #2
    1dc4:	f6cf 73ff 	movt	r3, #65535	; 0xffff
    1dc8:	429a      	cmp	r2, r3
    1dca:	d003      	beq.n	1dd4 <TEE_Wait+0x34>
/home/rahulmahdev/devel/optee/optee_os/lib/libutee/tee_api.c:198
    1dcc:	68f8      	ldr	r0, [r7, #12]
    1dce:	4b06      	ldr	r3, [pc, #24]	; (1de8 <TEE_Wait+0x48>)
    1dd0:	447b      	add	r3, pc
    1dd2:	4798      	blx	r3
/home/rahulmahdev/devel/optee/optee_os/lib/libutee/tee_api.c:200
    1dd4:	68fb      	ldr	r3, [r7, #12]
/home/rahulmahdev/devel/optee/optee_os/lib/libutee/tee_api.c:201
    1dd6:	4618      	mov	r0, r3
    1dd8:	f107 0710 	add.w	r7, r7, #16
    1ddc:	46bd      	mov	sp, r7
    1dde:	bd80      	pop	{r7, pc}
    1de0:	0000a790 	.word	0x0000a790
    1de4:	000001a4 	.word	0x000001a4
    1de8:	fffffc2d 	.word	0xfffffc2d

00001dec <TEE_GetTAPersistentTime>:
TEE_GetTAPersistentTime():
/home/rahulmahdev/devel/optee/optee_os/lib/libutee/tee_api.c:204
    1dec:	e96d 7e02 	strd	r7, lr, [sp, #-8]!
    1df0:	b084      	sub	sp, #16
    1df2:	af00      	add	r7, sp, #0
    1df4:	6078      	str	r0, [r7, #4]
    1df6:	4a20      	ldr	r2, [pc, #128]	; (1e78 <TEE_GetTAPersistentTime+0x8c>)
    1df8:	447a      	add	r2, pc
/home/rahulmahdev/devel/optee/optee_os/lib/libutee/tee_api.c:207
    1dfa:	6879      	ldr	r1, [r7, #4]
    1dfc:	f04f 0001 	mov.w	r0, #1
    1e00:	4b1e      	ldr	r3, [pc, #120]	; (1e7c <TEE_GetTAPersistentTime+0x90>)
    1e02:	58d3      	ldr	r3, [r2, r3]
    1e04:	4798      	blx	r3
    1e06:	60f8      	str	r0, [r7, #12]
/home/rahulmahdev/devel/optee/optee_os/lib/libutee/tee_api.c:209
    1e08:	68fb      	ldr	r3, [r7, #12]
    1e0a:	2b00      	cmp	r3, #0
    1e0c:	d00e      	beq.n	1e2c <TEE_GetTAPersistentTime+0x40>
/home/rahulmahdev/devel/optee/optee_os/lib/libutee/tee_api.c:209 (discriminator 1)
    1e0e:	68fa      	ldr	r2, [r7, #12]
    1e10:	f243 030f 	movw	r3, #12303	; 0x300f
    1e14:	f6cf 73ff 	movt	r3, #65535	; 0xffff
    1e18:	429a      	cmp	r2, r3
    1e1a:	d007      	beq.n	1e2c <TEE_GetTAPersistentTime+0x40>
/home/rahulmahdev/devel/optee/optee_os/lib/libutee/tee_api.c:210
    1e1c:	687b      	ldr	r3, [r7, #4]
    1e1e:	f04f 0200 	mov.w	r2, #0
    1e22:	601a      	str	r2, [r3, #0]
/home/rahulmahdev/devel/optee/optee_os/lib/libutee/tee_api.c:211
    1e24:	687b      	ldr	r3, [r7, #4]
    1e26:	f04f 0200 	mov.w	r2, #0
    1e2a:	605a      	str	r2, [r3, #4]
/home/rahulmahdev/devel/optee/optee_os/lib/libutee/tee_api.c:214
    1e2c:	68fb      	ldr	r3, [r7, #12]
    1e2e:	2b00      	cmp	r3, #0
    1e30:	d01c      	beq.n	1e6c <TEE_GetTAPersistentTime+0x80>
/home/rahulmahdev/devel/optee/optee_os/lib/libutee/tee_api.c:214 (discriminator 1)
    1e32:	68fb      	ldr	r3, [r7, #12]
    1e34:	f513 4f30 	cmn.w	r3, #45056	; 0xb000
    1e38:	d018      	beq.n	1e6c <TEE_GetTAPersistentTime+0x80>
/home/rahulmahdev/devel/optee/optee_os/lib/libutee/tee_api.c:215
    1e3a:	68fa      	ldr	r2, [r7, #12]
    1e3c:	f245 0301 	movw	r3, #20481	; 0x5001
    1e40:	f6cf 73ff 	movt	r3, #65535	; 0xffff
    1e44:	429a      	cmp	r2, r3
    1e46:	d011      	beq.n	1e6c <TEE_GetTAPersistentTime+0x80>
/home/rahulmahdev/devel/optee/optee_os/lib/libutee/tee_api.c:216
    1e48:	68fa      	ldr	r2, [r7, #12]
    1e4a:	f243 030f 	movw	r3, #12303	; 0x300f
    1e4e:	f6cf 73ff 	movt	r3, #65535	; 0xffff
    1e52:	429a      	cmp	r2, r3
    1e54:	d00a      	beq.n	1e6c <TEE_GetTAPersistentTime+0x80>
/home/rahulmahdev/devel/optee/optee_os/lib/libutee/tee_api.c:217
    1e56:	68fa      	ldr	r2, [r7, #12]
    1e58:	f04f 030c 	mov.w	r3, #12
    1e5c:	f6cf 73ff 	movt	r3, #65535	; 0xffff
    1e60:	429a      	cmp	r2, r3
    1e62:	d003      	beq.n	1e6c <TEE_GetTAPersistentTime+0x80>
/home/rahulmahdev/devel/optee/optee_os/lib/libutee/tee_api.c:219
    1e64:	68f8      	ldr	r0, [r7, #12]
    1e66:	4b06      	ldr	r3, [pc, #24]	; (1e80 <TEE_GetTAPersistentTime+0x94>)
    1e68:	447b      	add	r3, pc
    1e6a:	4798      	blx	r3
/home/rahulmahdev/devel/optee/optee_os/lib/libutee/tee_api.c:221
    1e6c:	68fb      	ldr	r3, [r7, #12]
/home/rahulmahdev/devel/optee/optee_os/lib/libutee/tee_api.c:222
    1e6e:	4618      	mov	r0, r3
    1e70:	f107 0710 	add.w	r7, r7, #16
    1e74:	46bd      	mov	sp, r7
    1e76:	bd80      	pop	{r7, pc}
    1e78:	0000a744 	.word	0x0000a744
    1e7c:	000001ac 	.word	0x000001ac
    1e80:	fffffb95 	.word	0xfffffb95

00001e84 <TEE_SetTAPersistentTime>:
TEE_SetTAPersistentTime():
/home/rahulmahdev/devel/optee/optee_os/lib/libutee/tee_api.c:225
    1e84:	e96d 7e02 	strd	r7, lr, [sp, #-8]!
    1e88:	b084      	sub	sp, #16
    1e8a:	af00      	add	r7, sp, #0
    1e8c:	6078      	str	r0, [r7, #4]
    1e8e:	4a11      	ldr	r2, [pc, #68]	; (1ed4 <TEE_SetTAPersistentTime+0x50>)
    1e90:	447a      	add	r2, pc
/home/rahulmahdev/devel/optee/optee_os/lib/libutee/tee_api.c:228
    1e92:	6878      	ldr	r0, [r7, #4]
    1e94:	4b10      	ldr	r3, [pc, #64]	; (1ed8 <TEE_SetTAPersistentTime+0x54>)
    1e96:	58d3      	ldr	r3, [r2, r3]
    1e98:	4798      	blx	r3
    1e9a:	60f8      	str	r0, [r7, #12]
/home/rahulmahdev/devel/optee/optee_os/lib/libutee/tee_api.c:230
    1e9c:	68fb      	ldr	r3, [r7, #12]
    1e9e:	2b00      	cmp	r3, #0
    1ea0:	d011      	beq.n	1ec6 <TEE_SetTAPersistentTime+0x42>
/home/rahulmahdev/devel/optee/optee_os/lib/libutee/tee_api.c:230 (discriminator 1)
    1ea2:	68fa      	ldr	r2, [r7, #12]
    1ea4:	f04f 030c 	mov.w	r3, #12
    1ea8:	f6cf 73ff 	movt	r3, #65535	; 0xffff
    1eac:	429a      	cmp	r2, r3
    1eae:	d00a      	beq.n	1ec6 <TEE_SetTAPersistentTime+0x42>
/home/rahulmahdev/devel/optee/optee_os/lib/libutee/tee_api.c:231
    1eb0:	68fa      	ldr	r2, [r7, #12]
    1eb2:	f243 0341 	movw	r3, #12353	; 0x3041
    1eb6:	f6cf 73ff 	movt	r3, #65535	; 0xffff
    1eba:	429a      	cmp	r2, r3
    1ebc:	d003      	beq.n	1ec6 <TEE_SetTAPersistentTime+0x42>
/home/rahulmahdev/devel/optee/optee_os/lib/libutee/tee_api.c:233
    1ebe:	68f8      	ldr	r0, [r7, #12]
    1ec0:	4b06      	ldr	r3, [pc, #24]	; (1edc <TEE_SetTAPersistentTime+0x58>)
    1ec2:	447b      	add	r3, pc
    1ec4:	4798      	blx	r3
/home/rahulmahdev/devel/optee/optee_os/lib/libutee/tee_api.c:235
    1ec6:	68fb      	ldr	r3, [r7, #12]
/home/rahulmahdev/devel/optee/optee_os/lib/libutee/tee_api.c:236
    1ec8:	4618      	mov	r0, r3
    1eca:	f107 0710 	add.w	r7, r7, #16
    1ece:	46bd      	mov	sp, r7
    1ed0:	bd80      	pop	{r7, pc}
    1ed2:	bf00      	nop
    1ed4:	0000a6ac 	.word	0x0000a6ac
    1ed8:	000000c0 	.word	0x000000c0
    1edc:	fffffb3b 	.word	0xfffffb3b

00001ee0 <TEE_GetREETime>:
TEE_GetREETime():
/home/rahulmahdev/devel/optee/optee_os/lib/libutee/tee_api.c:239
    1ee0:	e96d 7e02 	strd	r7, lr, [sp, #-8]!
    1ee4:	b084      	sub	sp, #16
    1ee6:	af00      	add	r7, sp, #0
    1ee8:	6078      	str	r0, [r7, #4]
    1eea:	4a0a      	ldr	r2, [pc, #40]	; (1f14 <TEE_GetREETime+0x34>)
    1eec:	447a      	add	r2, pc
/home/rahulmahdev/devel/optee/optee_os/lib/libutee/tee_api.c:240
    1eee:	6879      	ldr	r1, [r7, #4]
    1ef0:	f04f 0002 	mov.w	r0, #2
    1ef4:	4b08      	ldr	r3, [pc, #32]	; (1f18 <TEE_GetREETime+0x38>)
    1ef6:	58d3      	ldr	r3, [r2, r3]
    1ef8:	4798      	blx	r3
    1efa:	60f8      	str	r0, [r7, #12]
/home/rahulmahdev/devel/optee/optee_os/lib/libutee/tee_api.c:242
    1efc:	68fb      	ldr	r3, [r7, #12]
    1efe:	2b00      	cmp	r3, #0
    1f00:	d004      	beq.n	1f0c <TEE_GetREETime+0x2c>
/home/rahulmahdev/devel/optee/optee_os/lib/libutee/tee_api.c:243
    1f02:	f04f 0000 	mov.w	r0, #0
    1f06:	4b05      	ldr	r3, [pc, #20]	; (1f1c <TEE_GetREETime+0x3c>)
    1f08:	447b      	add	r3, pc
    1f0a:	4798      	blx	r3
/home/rahulmahdev/devel/optee/optee_os/lib/libutee/tee_api.c:244
    1f0c:	f107 0710 	add.w	r7, r7, #16
    1f10:	46bd      	mov	sp, r7
    1f12:	bd80      	pop	{r7, pc}
    1f14:	0000a650 	.word	0x0000a650
    1f18:	000001ac 	.word	0x000001ac
    1f1c:	fffffaf5 	.word	0xfffffaf5

00001f20 <TEE_Malloc>:
TEE_Malloc():
/home/rahulmahdev/devel/optee/optee_os/lib/libutee/tee_api.c:247
    1f20:	e96d 7e02 	strd	r7, lr, [sp, #-8]!
    1f24:	b082      	sub	sp, #8
    1f26:	af00      	add	r7, sp, #0
    1f28:	6078      	str	r0, [r7, #4]
    1f2a:	6039      	str	r1, [r7, #0]
    1f2c:	4a06      	ldr	r2, [pc, #24]	; (1f48 <TEE_Malloc+0x28>)
    1f2e:	447a      	add	r2, pc
/home/rahulmahdev/devel/optee/optee_os/lib/libutee/tee_api.c:248
    1f30:	6839      	ldr	r1, [r7, #0]
    1f32:	6878      	ldr	r0, [r7, #4]
    1f34:	4b05      	ldr	r3, [pc, #20]	; (1f4c <TEE_Malloc+0x2c>)
    1f36:	58d3      	ldr	r3, [r2, r3]
    1f38:	4798      	blx	r3
    1f3a:	4603      	mov	r3, r0
/home/rahulmahdev/devel/optee/optee_os/lib/libutee/tee_api.c:249
    1f3c:	4618      	mov	r0, r3
    1f3e:	f107 0708 	add.w	r7, r7, #8
    1f42:	46bd      	mov	sp, r7
    1f44:	bd80      	pop	{r7, pc}
    1f46:	bf00      	nop
    1f48:	0000a60e 	.word	0x0000a60e
    1f4c:	00000114 	.word	0x00000114

00001f50 <TEE_Realloc>:
TEE_Realloc():
/home/rahulmahdev/devel/optee/optee_os/lib/libutee/tee_api.c:252
    1f50:	e96d 7e02 	strd	r7, lr, [sp, #-8]!
    1f54:	b082      	sub	sp, #8
    1f56:	af00      	add	r7, sp, #0
    1f58:	6078      	str	r0, [r7, #4]
    1f5a:	6039      	str	r1, [r7, #0]
    1f5c:	4a06      	ldr	r2, [pc, #24]	; (1f78 <TEE_Realloc+0x28>)
    1f5e:	447a      	add	r2, pc
/home/rahulmahdev/devel/optee/optee_os/lib/libutee/tee_api.c:257
    1f60:	6839      	ldr	r1, [r7, #0]
    1f62:	6878      	ldr	r0, [r7, #4]
    1f64:	4b05      	ldr	r3, [pc, #20]	; (1f7c <TEE_Realloc+0x2c>)
    1f66:	58d3      	ldr	r3, [r2, r3]
    1f68:	4798      	blx	r3
    1f6a:	4603      	mov	r3, r0
/home/rahulmahdev/devel/optee/optee_os/lib/libutee/tee_api.c:258
    1f6c:	4618      	mov	r0, r3
    1f6e:	f107 0708 	add.w	r7, r7, #8
    1f72:	46bd      	mov	sp, r7
    1f74:	bd80      	pop	{r7, pc}
    1f76:	bf00      	nop
    1f78:	0000a5de 	.word	0x0000a5de
    1f7c:	00000020 	.word	0x00000020

00001f80 <TEE_Free>:
TEE_Free():
/home/rahulmahdev/devel/optee/optee_os/lib/libutee/tee_api.c:261
    1f80:	e96d 7e02 	strd	r7, lr, [sp, #-8]!
    1f84:	b082      	sub	sp, #8
    1f86:	af00      	add	r7, sp, #0
    1f88:	6078      	str	r0, [r7, #4]
    1f8a:	4a05      	ldr	r2, [pc, #20]	; (1fa0 <TEE_Free+0x20>)
    1f8c:	447a      	add	r2, pc
/home/rahulmahdev/devel/optee/optee_os/lib/libutee/tee_api.c:262
    1f8e:	6878      	ldr	r0, [r7, #4]
    1f90:	4b04      	ldr	r3, [pc, #16]	; (1fa4 <TEE_Free+0x24>)
    1f92:	58d3      	ldr	r3, [r2, r3]
    1f94:	4798      	blx	r3
/home/rahulmahdev/devel/optee/optee_os/lib/libutee/tee_api.c:263
    1f96:	f107 0708 	add.w	r7, r7, #8
    1f9a:	46bd      	mov	sp, r7
    1f9c:	bd80      	pop	{r7, pc}
    1f9e:	bf00      	nop
    1fa0:	0000a5b0 	.word	0x0000a5b0
    1fa4:	0000002c 	.word	0x0000002c

00001fa8 <TEE_CacheClean>:
TEE_CacheClean():
/home/rahulmahdev/devel/optee/optee_os/lib/libutee/tee_api.c:267
    1fa8:	f84d 4d0c 	str.w	r4, [sp, #-12]!
    1fac:	e9cd 7e01 	strd	r7, lr, [sp, #4]
    1fb0:	b083      	sub	sp, #12
    1fb2:	af00      	add	r7, sp, #0
    1fb4:	6078      	str	r0, [r7, #4]
    1fb6:	6039      	str	r1, [r7, #0]
    1fb8:	4c09      	ldr	r4, [pc, #36]	; (1fe0 <TEE_CacheClean+0x38>)
    1fba:	447c      	add	r4, pc
/home/rahulmahdev/devel/optee/optee_os/lib/libutee/tee_api.c:268
    1fbc:	f04f 0200 	mov.w	r2, #0
    1fc0:	6839      	ldr	r1, [r7, #0]
    1fc2:	6878      	ldr	r0, [r7, #4]
    1fc4:	4b07      	ldr	r3, [pc, #28]	; (1fe4 <TEE_CacheClean+0x3c>)
    1fc6:	58e3      	ldr	r3, [r4, r3]
    1fc8:	4798      	blx	r3
    1fca:	4603      	mov	r3, r0
/home/rahulmahdev/devel/optee/optee_os/lib/libutee/tee_api.c:269
    1fcc:	4618      	mov	r0, r3
    1fce:	f107 070c 	add.w	r7, r7, #12
    1fd2:	46bd      	mov	sp, r7
    1fd4:	e9dd 4700 	ldrd	r4, r7, [sp]
    1fd8:	b002      	add	sp, #8
    1fda:	f85d fb04 	ldr.w	pc, [sp], #4
    1fde:	bf00      	nop
    1fe0:	0000a582 	.word	0x0000a582
    1fe4:	0000008c 	.word	0x0000008c

00001fe8 <TEE_CacheFlush>:
TEE_CacheFlush():
/home/rahulmahdev/devel/optee/optee_os/lib/libutee/tee_api.c:271
    1fe8:	f84d 4d0c 	str.w	r4, [sp, #-12]!
    1fec:	e9cd 7e01 	strd	r7, lr, [sp, #4]
    1ff0:	b083      	sub	sp, #12
    1ff2:	af00      	add	r7, sp, #0
    1ff4:	6078      	str	r0, [r7, #4]
    1ff6:	6039      	str	r1, [r7, #0]
    1ff8:	4c09      	ldr	r4, [pc, #36]	; (2020 <TEE_CacheFlush+0x38>)
    1ffa:	447c      	add	r4, pc
/home/rahulmahdev/devel/optee/optee_os/lib/libutee/tee_api.c:272
    1ffc:	f04f 0201 	mov.w	r2, #1
    2000:	6839      	ldr	r1, [r7, #0]
    2002:	6878      	ldr	r0, [r7, #4]
    2004:	4b07      	ldr	r3, [pc, #28]	; (2024 <TEE_CacheFlush+0x3c>)
    2006:	58e3      	ldr	r3, [r4, r3]
    2008:	4798      	blx	r3
    200a:	4603      	mov	r3, r0
/home/rahulmahdev/devel/optee/optee_os/lib/libutee/tee_api.c:273
    200c:	4618      	mov	r0, r3
    200e:	f107 070c 	add.w	r7, r7, #12
    2012:	46bd      	mov	sp, r7
    2014:	e9dd 4700 	ldrd	r4, r7, [sp]
    2018:	b002      	add	sp, #8
    201a:	f85d fb04 	ldr.w	pc, [sp], #4
    201e:	bf00      	nop
    2020:	0000a542 	.word	0x0000a542
    2024:	0000008c 	.word	0x0000008c

00002028 <TEE_CacheInvalidate>:
TEE_CacheInvalidate():
/home/rahulmahdev/devel/optee/optee_os/lib/libutee/tee_api.c:276
    2028:	f84d 4d0c 	str.w	r4, [sp, #-12]!
    202c:	e9cd 7e01 	strd	r7, lr, [sp, #4]
    2030:	b083      	sub	sp, #12
    2032:	af00      	add	r7, sp, #0
    2034:	6078      	str	r0, [r7, #4]
    2036:	6039      	str	r1, [r7, #0]
    2038:	4c09      	ldr	r4, [pc, #36]	; (2060 <TEE_CacheInvalidate+0x38>)
    203a:	447c      	add	r4, pc
/home/rahulmahdev/devel/optee/optee_os/lib/libutee/tee_api.c:277
    203c:	f04f 0202 	mov.w	r2, #2
    2040:	6839      	ldr	r1, [r7, #0]
    2042:	6878      	ldr	r0, [r7, #4]
    2044:	4b07      	ldr	r3, [pc, #28]	; (2064 <TEE_CacheInvalidate+0x3c>)
    2046:	58e3      	ldr	r3, [r4, r3]
    2048:	4798      	blx	r3
    204a:	4603      	mov	r3, r0
/home/rahulmahdev/devel/optee/optee_os/lib/libutee/tee_api.c:278
    204c:	4618      	mov	r0, r3
    204e:	f107 070c 	add.w	r7, r7, #12
    2052:	46bd      	mov	sp, r7
    2054:	e9dd 4700 	ldrd	r4, r7, [sp]
    2058:	b002      	add	sp, #8
    205a:	f85d fb04 	ldr.w	pc, [sp], #4
    205e:	bf00      	nop
    2060:	0000a502 	.word	0x0000a502
    2064:	0000008c 	.word	0x0000008c

00002068 <utee_get_ta_exec_id>:
utee_get_ta_exec_id():
/home/rahulmahdev/devel/optee/optee_os/lib/libutee/arch/arm/utee_misc.c:36
    2068:	f84d 7d04 	str.w	r7, [sp, #-4]!
    206c:	af00      	add	r7, sp, #0
/home/rahulmahdev/devel/optee/optee_os/lib/libutee/arch/arm/utee_misc.c:38
    206e:	f04f 0300 	mov.w	r3, #0
/home/rahulmahdev/devel/optee/optee_os/lib/libutee/arch/arm/utee_misc.c:39
    2072:	4618      	mov	r0, r3
    2074:	46bd      	mov	sp, r7
    2076:	f85d 7b04 	ldr.w	r7, [sp], #4
    207a:	4770      	bx	lr

0000207c <utee_malloc>:
utee_malloc():
/home/rahulmahdev/devel/optee/optee_os/lib/libutee/arch/arm/utee_misc.c:43
    207c:	e96d 7e02 	strd	r7, lr, [sp, #-8]!
    2080:	b082      	sub	sp, #8
    2082:	af00      	add	r7, sp, #0
    2084:	6078      	str	r0, [r7, #4]
    2086:	4a06      	ldr	r2, [pc, #24]	; (20a0 <utee_malloc+0x24>)
    2088:	447a      	add	r2, pc
/home/rahulmahdev/devel/optee/optee_os/lib/libutee/arch/arm/utee_misc.c:44
    208a:	6878      	ldr	r0, [r7, #4]
    208c:	4b05      	ldr	r3, [pc, #20]	; (20a4 <utee_malloc+0x28>)
    208e:	58d3      	ldr	r3, [r2, r3]
    2090:	4798      	blx	r3
    2092:	4603      	mov	r3, r0
/home/rahulmahdev/devel/optee/optee_os/lib/libutee/arch/arm/utee_misc.c:45
    2094:	4618      	mov	r0, r3
    2096:	f107 0708 	add.w	r7, r7, #8
    209a:	46bd      	mov	sp, r7
    209c:	bd80      	pop	{r7, pc}
    209e:	bf00      	nop
    20a0:	0000a4b4 	.word	0x0000a4b4
    20a4:	00000080 	.word	0x00000080

000020a8 <utee_realloc>:
utee_realloc():
/home/rahulmahdev/devel/optee/optee_os/lib/libutee/arch/arm/utee_misc.c:48
    20a8:	e96d 7e02 	strd	r7, lr, [sp, #-8]!
    20ac:	b082      	sub	sp, #8
    20ae:	af00      	add	r7, sp, #0
    20b0:	6078      	str	r0, [r7, #4]
    20b2:	6039      	str	r1, [r7, #0]
    20b4:	4a06      	ldr	r2, [pc, #24]	; (20d0 <utee_realloc+0x28>)
    20b6:	447a      	add	r2, pc
/home/rahulmahdev/devel/optee/optee_os/lib/libutee/arch/arm/utee_misc.c:49
    20b8:	6839      	ldr	r1, [r7, #0]
    20ba:	6878      	ldr	r0, [r7, #4]
    20bc:	4b05      	ldr	r3, [pc, #20]	; (20d4 <utee_realloc+0x2c>)
    20be:	58d3      	ldr	r3, [r2, r3]
    20c0:	4798      	blx	r3
    20c2:	4603      	mov	r3, r0
/home/rahulmahdev/devel/optee/optee_os/lib/libutee/arch/arm/utee_misc.c:50
    20c4:	4618      	mov	r0, r3
    20c6:	f107 0708 	add.w	r7, r7, #8
    20ca:	46bd      	mov	sp, r7
    20cc:	bd80      	pop	{r7, pc}
    20ce:	bf00      	nop
    20d0:	0000a486 	.word	0x0000a486
    20d4:	000000f8 	.word	0x000000f8

000020d8 <utee_calloc>:
utee_calloc():
/home/rahulmahdev/devel/optee/optee_os/lib/libutee/arch/arm/utee_misc.c:53
    20d8:	e96d 7e02 	strd	r7, lr, [sp, #-8]!
    20dc:	b082      	sub	sp, #8
    20de:	af00      	add	r7, sp, #0
    20e0:	6078      	str	r0, [r7, #4]
    20e2:	6039      	str	r1, [r7, #0]
    20e4:	4a06      	ldr	r2, [pc, #24]	; (2100 <utee_calloc+0x28>)
    20e6:	447a      	add	r2, pc
/home/rahulmahdev/devel/optee/optee_os/lib/libutee/arch/arm/utee_misc.c:54
    20e8:	6879      	ldr	r1, [r7, #4]
    20ea:	6838      	ldr	r0, [r7, #0]
    20ec:	4b05      	ldr	r3, [pc, #20]	; (2104 <utee_calloc+0x2c>)
    20ee:	58d3      	ldr	r3, [r2, r3]
    20f0:	4798      	blx	r3
    20f2:	4603      	mov	r3, r0
/home/rahulmahdev/devel/optee/optee_os/lib/libutee/arch/arm/utee_misc.c:55
    20f4:	4618      	mov	r0, r3
    20f6:	f107 0708 	add.w	r7, r7, #8
    20fa:	46bd      	mov	sp, r7
    20fc:	bd80      	pop	{r7, pc}
    20fe:	bf00      	nop
    2100:	0000a456 	.word	0x0000a456
    2104:	000000c4 	.word	0x000000c4

00002108 <utee_free>:
utee_free():
/home/rahulmahdev/devel/optee/optee_os/lib/libutee/arch/arm/utee_misc.c:58
    2108:	e96d 7e02 	strd	r7, lr, [sp, #-8]!
    210c:	b082      	sub	sp, #8
    210e:	af00      	add	r7, sp, #0
    2110:	6078      	str	r0, [r7, #4]
    2112:	4a05      	ldr	r2, [pc, #20]	; (2128 <utee_free+0x20>)
    2114:	447a      	add	r2, pc
/home/rahulmahdev/devel/optee/optee_os/lib/libutee/arch/arm/utee_misc.c:59
    2116:	6878      	ldr	r0, [r7, #4]
    2118:	4b04      	ldr	r3, [pc, #16]	; (212c <utee_free+0x24>)
    211a:	58d3      	ldr	r3, [r2, r3]
    211c:	4798      	blx	r3
/home/rahulmahdev/devel/optee/optee_os/lib/libutee/arch/arm/utee_misc.c:60
    211e:	f107 0708 	add.w	r7, r7, #8
    2122:	46bd      	mov	sp, r7
    2124:	bd80      	pop	{r7, pc}
    2126:	bf00      	nop
    2128:	0000a428 	.word	0x0000a428
    212c:	000001c0 	.word	0x000001c0

00002130 <get_rng_array>:
get_rng_array():
/home/rahulmahdev/devel/optee/optee_os/lib/libutee/arch/arm/utee_misc.c:70
    2130:	e96d 7e02 	strd	r7, lr, [sp, #-8]!
    2134:	b082      	sub	sp, #8
    2136:	af00      	add	r7, sp, #0
    2138:	6078      	str	r0, [r7, #4]
    213a:	6039      	str	r1, [r7, #0]
    213c:	4a06      	ldr	r2, [pc, #24]	; (2158 <get_rng_array+0x28>)
    213e:	447a      	add	r2, pc
/home/rahulmahdev/devel/optee/optee_os/lib/libutee/arch/arm/utee_misc.c:71
    2140:	6839      	ldr	r1, [r7, #0]
    2142:	6878      	ldr	r0, [r7, #4]
    2144:	4b05      	ldr	r3, [pc, #20]	; (215c <get_rng_array+0x2c>)
    2146:	58d3      	ldr	r3, [r2, r3]
    2148:	4798      	blx	r3
    214a:	4603      	mov	r3, r0
/home/rahulmahdev/devel/optee/optee_os/lib/libutee/arch/arm/utee_misc.c:72
    214c:	4618      	mov	r0, r3
    214e:	f107 0708 	add.w	r7, r7, #8
    2152:	46bd      	mov	sp, r7
    2154:	bd80      	pop	{r7, pc}
    2156:	bf00      	nop
    2158:	0000a3fe 	.word	0x0000a3fe
    215c:	00000108 	.word	0x00000108

00002160 <buf_addr>:
buf_addr():
/home/rahulmahdev/devel/optee/optee_os/lib/libutee/tee_user_mem.c:129
    2160:	f84d 7d04 	str.w	r7, [sp, #-4]!
    2164:	b083      	sub	sp, #12
    2166:	af00      	add	r7, sp, #0
    2168:	6078      	str	r0, [r7, #4]
/home/rahulmahdev/devel/optee/optee_os/lib/libutee/tee_user_mem.c:130
    216a:	687b      	ldr	r3, [r7, #4]
    216c:	f103 0310 	add.w	r3, r3, #16
/home/rahulmahdev/devel/optee/optee_os/lib/libutee/tee_user_mem.c:131
    2170:	4618      	mov	r0, r3
    2172:	f107 070c 	add.w	r7, r7, #12
    2176:	46bd      	mov	sp, r7
    2178:	f85d 7b04 	ldr.w	r7, [sp], #4
    217c:	4770      	bx	lr
    217e:	bf00      	nop

00002180 <buf_size>:
buf_size():
/home/rahulmahdev/devel/optee/optee_os/lib/libutee/tee_user_mem.c:134
    2180:	f84d 7d04 	str.w	r7, [sp, #-4]!
    2184:	b083      	sub	sp, #12
    2186:	af00      	add	r7, sp, #0
    2188:	6078      	str	r0, [r7, #4]
/home/rahulmahdev/devel/optee/optee_os/lib/libutee/tee_user_mem.c:135
    218a:	687b      	ldr	r3, [r7, #4]
    218c:	689b      	ldr	r3, [r3, #8]
    218e:	f04f 0201 	mov.w	r2, #1
    2192:	eba3 0302 	sub.w	r3, r3, r2
    2196:	f1a3 0310 	sub.w	r3, r3, #16
/home/rahulmahdev/devel/optee/optee_os/lib/libutee/tee_user_mem.c:136
    219a:	4618      	mov	r0, r3
    219c:	f107 070c 	add.w	r7, r7, #12
    21a0:	46bd      	mov	sp, r7
    21a2:	f85d 7b04 	ldr.w	r7, [sp], #4
    21a6:	4770      	bx	lr

000021a8 <elem_addr>:
elem_addr():
/home/rahulmahdev/devel/optee/optee_os/lib/libutee/tee_user_mem.c:139
    21a8:	f84d 7d04 	str.w	r7, [sp, #-4]!
    21ac:	b083      	sub	sp, #12
    21ae:	af00      	add	r7, sp, #0
    21b0:	6078      	str	r0, [r7, #4]
/home/rahulmahdev/devel/optee/optee_os/lib/libutee/tee_user_mem.c:140
    21b2:	687b      	ldr	r3, [r7, #4]
    21b4:	f1a3 0310 	sub.w	r3, r3, #16
/home/rahulmahdev/devel/optee/optee_os/lib/libutee/tee_user_mem.c:141
    21b8:	4618      	mov	r0, r3
    21ba:	f107 070c 	add.w	r7, r7, #12
    21be:	46bd      	mov	sp, r7
    21c0:	f85d 7b04 	ldr.w	r7, [sp], #4
    21c4:	4770      	bx	lr
    21c6:	bf00      	nop

000021c8 <is_buffer_valid>:
is_buffer_valid():
/home/rahulmahdev/devel/optee/optee_os/lib/libutee/tee_user_mem.c:147
    21c8:	e96d 7e02 	strd	r7, lr, [sp, #-8]!
    21cc:	b084      	sub	sp, #16
    21ce:	af00      	add	r7, sp, #0
    21d0:	6078      	str	r0, [r7, #4]
/home/rahulmahdev/devel/optee/optee_os/lib/libutee/tee_user_mem.c:150
    21d2:	4b0e      	ldr	r3, [pc, #56]	; (220c <is_buffer_valid+0x44>)
    21d4:	447b      	add	r3, pc
    21d6:	681b      	ldr	r3, [r3, #0]
    21d8:	60fb      	str	r3, [r7, #12]
    21da:	e00d      	b.n	21f8 <is_buffer_valid+0x30>
/home/rahulmahdev/devel/optee/optee_os/lib/libutee/tee_user_mem.c:151
    21dc:	68f8      	ldr	r0, [r7, #12]
    21de:	4b0c      	ldr	r3, [pc, #48]	; (2210 <is_buffer_valid+0x48>)
    21e0:	447b      	add	r3, pc
    21e2:	4798      	blx	r3
    21e4:	4602      	mov	r2, r0
    21e6:	687b      	ldr	r3, [r7, #4]
    21e8:	429a      	cmp	r2, r3
    21ea:	d102      	bne.n	21f2 <is_buffer_valid+0x2a>
/home/rahulmahdev/devel/optee/optee_os/lib/libutee/tee_user_mem.c:152
    21ec:	f04f 0301 	mov.w	r3, #1
    21f0:	e007      	b.n	2202 <is_buffer_valid+0x3a>
/home/rahulmahdev/devel/optee/optee_os/lib/libutee/tee_user_mem.c:150 (discriminator 2)
    21f2:	68fb      	ldr	r3, [r7, #12]
    21f4:	681b      	ldr	r3, [r3, #0]
    21f6:	60fb      	str	r3, [r7, #12]
/home/rahulmahdev/devel/optee/optee_os/lib/libutee/tee_user_mem.c:150 (discriminator 1)
    21f8:	68fb      	ldr	r3, [r7, #12]
    21fa:	2b00      	cmp	r3, #0
    21fc:	d1ee      	bne.n	21dc <is_buffer_valid+0x14>
/home/rahulmahdev/devel/optee/optee_os/lib/libutee/tee_user_mem.c:154
    21fe:	f04f 0300 	mov.w	r3, #0
/home/rahulmahdev/devel/optee/optee_os/lib/libutee/tee_user_mem.c:155
    2202:	4618      	mov	r0, r3
    2204:	f107 0710 	add.w	r7, r7, #16
    2208:	46bd      	mov	sp, r7
    220a:	bd80      	pop	{r7, pc}
    220c:	0000aea8 	.word	0x0000aea8
    2210:	ffffff7d 	.word	0xffffff7d

00002214 <print_buf>:
print_buf():
/home/rahulmahdev/devel/optee/optee_os/lib/libutee/tee_user_mem.c:164
    2214:	e96d 4504 	strd	r4, r5, [sp, #-16]!
    2218:	e9cd 7e02 	strd	r7, lr, [sp, #8]
    221c:	b08c      	sub	sp, #48	; 0x30
    221e:	af08      	add	r7, sp, #32
    2220:	60f8      	str	r0, [r7, #12]
    2222:	60b9      	str	r1, [r7, #8]
    2224:	607a      	str	r2, [r7, #4]
    2226:	603b      	str	r3, [r7, #0]
    2228:	4d14      	ldr	r5, [pc, #80]	; (227c <print_buf+0x68>)
    222a:	447d      	add	r5, pc
/home/rahulmahdev/devel/optee/optee_os/lib/libutee/tee_user_mem.c:165
    222c:	6a38      	ldr	r0, [r7, #32]
    222e:	4b14      	ldr	r3, [pc, #80]	; (2280 <print_buf+0x6c>)
    2230:	447b      	add	r3, pc
    2232:	4798      	blx	r3
    2234:	4604      	mov	r4, r0
    2236:	6a38      	ldr	r0, [r7, #32]
    2238:	4b12      	ldr	r3, [pc, #72]	; (2284 <print_buf+0x70>)
    223a:	447b      	add	r3, pc
    223c:	4798      	blx	r3
    223e:	4603      	mov	r3, r0
    2240:	9306      	str	r3, [sp, #24]
    2242:	9405      	str	r4, [sp, #20]
    2244:	6a3b      	ldr	r3, [r7, #32]
    2246:	9304      	str	r3, [sp, #16]
    2248:	683b      	ldr	r3, [r7, #0]
    224a:	9303      	str	r3, [sp, #12]
    224c:	687b      	ldr	r3, [r7, #4]
    224e:	9302      	str	r3, [sp, #8]
    2250:	68bb      	ldr	r3, [r7, #8]
    2252:	9301      	str	r3, [sp, #4]
    2254:	4b0c      	ldr	r3, [pc, #48]	; (2288 <print_buf+0x74>)
    2256:	447b      	add	r3, pc
    2258:	9300      	str	r3, [sp, #0]
    225a:	f04f 0301 	mov.w	r3, #1
    225e:	68fa      	ldr	r2, [r7, #12]
    2260:	f04f 0100 	mov.w	r1, #0
    2264:	f04f 0000 	mov.w	r0, #0
    2268:	4c08      	ldr	r4, [pc, #32]	; (228c <print_buf+0x78>)
    226a:	592c      	ldr	r4, [r5, r4]
    226c:	47a0      	blx	r4
/home/rahulmahdev/devel/optee/optee_os/lib/libutee/tee_user_mem.c:168
    226e:	f107 0710 	add.w	r7, r7, #16
    2272:	46bd      	mov	sp, r7
    2274:	e9dd 4500 	ldrd	r4, r5, [sp]
    2278:	b002      	add	sp, #8
    227a:	bd80      	pop	{r7, pc}
    227c:	0000a312 	.word	0x0000a312
    2280:	ffffff2d 	.word	0xffffff2d
    2284:	ffffff43 	.word	0xffffff43
    2288:	00008ec6 	.word	0x00008ec6
    228c:	00000060 	.word	0x00000060

00002290 <heap_inc>:
heap_inc():
/home/rahulmahdev/devel/optee/optee_os/lib/libutee/tee_user_mem.c:194
    2290:	f84d 7d04 	str.w	r7, [sp, #-4]!
    2294:	b083      	sub	sp, #12
    2296:	af00      	add	r7, sp, #0
    2298:	6078      	str	r0, [r7, #4]
/home/rahulmahdev/devel/optee/optee_os/lib/libutee/tee_user_mem.c:196
    229a:	4b0f      	ldr	r3, [pc, #60]	; (22d8 <heap_inc+0x48>)
    229c:	447b      	add	r3, pc
    229e:	681a      	ldr	r2, [r3, #0]
    22a0:	687b      	ldr	r3, [r7, #4]
    22a2:	4413      	add	r3, r2
    22a4:	4a0d      	ldr	r2, [pc, #52]	; (22dc <heap_inc+0x4c>)
    22a6:	447a      	add	r2, pc
    22a8:	6013      	str	r3, [r2, #0]
/home/rahulmahdev/devel/optee/optee_os/lib/libutee/tee_user_mem.c:198
    22aa:	4b0d      	ldr	r3, [pc, #52]	; (22e0 <heap_inc+0x50>)
    22ac:	447b      	add	r3, pc
    22ae:	681b      	ldr	r3, [r3, #0]
    22b0:	f103 0301 	add.w	r3, r3, #1
    22b4:	4a0b      	ldr	r2, [pc, #44]	; (22e4 <heap_inc+0x54>)
    22b6:	447a      	add	r2, pc
    22b8:	6013      	str	r3, [r2, #0]
/home/rahulmahdev/devel/optee/optee_os/lib/libutee/tee_user_mem.c:199
    22ba:	4b0b      	ldr	r3, [pc, #44]	; (22e8 <heap_inc+0x58>)
    22bc:	447b      	add	r3, pc
    22be:	685a      	ldr	r2, [r3, #4]
    22c0:	687b      	ldr	r3, [r7, #4]
    22c2:	4413      	add	r3, r2
    22c4:	4a09      	ldr	r2, [pc, #36]	; (22ec <heap_inc+0x5c>)
    22c6:	447a      	add	r2, pc
    22c8:	6053      	str	r3, [r2, #4]
/home/rahulmahdev/devel/optee/optee_os/lib/libutee/tee_user_mem.c:201
    22ca:	f107 070c 	add.w	r7, r7, #12
    22ce:	46bd      	mov	sp, r7
    22d0:	f85d 7b04 	ldr.w	r7, [sp], #4
    22d4:	4770      	bx	lr
    22d6:	bf00      	nop
    22d8:	00014908 	.word	0x00014908
    22dc:	000148fe 	.word	0x000148fe
    22e0:	000148fc 	.word	0x000148fc
    22e4:	000148f2 	.word	0x000148f2
    22e8:	000148ec 	.word	0x000148ec
    22ec:	000148e2 	.word	0x000148e2

000022f0 <heap_dec>:
heap_dec():
/home/rahulmahdev/devel/optee/optee_os/lib/libutee/tee_user_mem.c:204
    22f0:	f84d 7d04 	str.w	r7, [sp, #-4]!
    22f4:	b083      	sub	sp, #12
    22f6:	af00      	add	r7, sp, #0
    22f8:	6078      	str	r0, [r7, #4]
/home/rahulmahdev/devel/optee/optee_os/lib/libutee/tee_user_mem.c:206
    22fa:	4b10      	ldr	r3, [pc, #64]	; (233c <heap_dec+0x4c>)
    22fc:	447b      	add	r3, pc
    22fe:	681a      	ldr	r2, [r3, #0]
    2300:	687b      	ldr	r3, [r7, #4]
    2302:	eba2 0303 	sub.w	r3, r2, r3
    2306:	4a0e      	ldr	r2, [pc, #56]	; (2340 <heap_dec+0x50>)
    2308:	447a      	add	r2, pc
    230a:	6013      	str	r3, [r2, #0]
/home/rahulmahdev/devel/optee/optee_os/lib/libutee/tee_user_mem.c:208
    230c:	4b0d      	ldr	r3, [pc, #52]	; (2344 <heap_dec+0x54>)
    230e:	447b      	add	r3, pc
    2310:	681b      	ldr	r3, [r3, #0]
    2312:	f103 33ff 	add.w	r3, r3, #4294967295
    2316:	4a0c      	ldr	r2, [pc, #48]	; (2348 <heap_dec+0x58>)
    2318:	447a      	add	r2, pc
    231a:	6013      	str	r3, [r2, #0]
/home/rahulmahdev/devel/optee/optee_os/lib/libutee/tee_user_mem.c:209
    231c:	4b0b      	ldr	r3, [pc, #44]	; (234c <heap_dec+0x5c>)
    231e:	447b      	add	r3, pc
    2320:	685a      	ldr	r2, [r3, #4]
    2322:	687b      	ldr	r3, [r7, #4]
    2324:	eba2 0303 	sub.w	r3, r2, r3
    2328:	4a09      	ldr	r2, [pc, #36]	; (2350 <heap_dec+0x60>)
    232a:	447a      	add	r2, pc
    232c:	6053      	str	r3, [r2, #4]
/home/rahulmahdev/devel/optee/optee_os/lib/libutee/tee_user_mem.c:211
    232e:	f107 070c 	add.w	r7, r7, #12
    2332:	46bd      	mov	sp, r7
    2334:	f85d 7b04 	ldr.w	r7, [sp], #4
    2338:	4770      	bx	lr
    233a:	bf00      	nop
    233c:	000148a8 	.word	0x000148a8
    2340:	0001489c 	.word	0x0001489c
    2344:	0001489a 	.word	0x0001489a
    2348:	00014890 	.word	0x00014890
    234c:	0001488a 	.word	0x0001488a
    2350:	0001487e 	.word	0x0001487e

00002354 <check_elem_end>:
check_elem_end():
/home/rahulmahdev/devel/optee/optee_os/lib/libutee/tee_user_mem.c:217
    2354:	f84d 4d0c 	str.w	r4, [sp, #-12]!
    2358:	e9cd 7e01 	strd	r7, lr, [sp, #4]
    235c:	b087      	sub	sp, #28
    235e:	af02      	add	r7, sp, #8
    2360:	6078      	str	r0, [r7, #4]
/home/rahulmahdev/devel/optee/optee_os/lib/libutee/tee_user_mem.c:218
    2362:	687b      	ldr	r3, [r7, #4]
    2364:	60fb      	str	r3, [r7, #12]
/home/rahulmahdev/devel/optee/optee_os/lib/libutee/tee_user_mem.c:225
    2366:	687b      	ldr	r3, [r7, #4]
    2368:	689b      	ldr	r3, [r3, #8]
    236a:	f04f 0201 	mov.w	r2, #1
    236e:	eba3 0302 	sub.w	r3, r3, r2
    2372:	68fa      	ldr	r2, [r7, #12]
    2374:	4413      	add	r3, r2
    2376:	781b      	ldrb	r3, [r3, #0]
    2378:	461a      	mov	r2, r3
/home/rahulmahdev/devel/optee/optee_os/lib/libutee/tee_user_mem.c:226
    237a:	68fb      	ldr	r3, [r7, #12]
    237c:	b2db      	uxtb	r3, r3
    237e:	f083 03c5 	eor.w	r3, r3, #197	; 0xc5
/home/rahulmahdev/devel/optee/optee_os/lib/libutee/tee_user_mem.c:225
    2382:	429a      	cmp	r2, r3
    2384:	d00f      	beq.n	23a6 <check_elem_end+0x52>
/home/rahulmahdev/devel/optee/optee_os/lib/libutee/tee_user_mem.c:227
    2386:	687b      	ldr	r3, [r7, #4]
    2388:	9300      	str	r3, [sp, #0]
    238a:	4b0c      	ldr	r3, [pc, #48]	; (23bc <check_elem_end+0x68>)
    238c:	447b      	add	r3, pc
    238e:	f04f 02e3 	mov.w	r2, #227	; 0xe3
    2392:	490b      	ldr	r1, [pc, #44]	; (23c0 <check_elem_end+0x6c>)
    2394:	4479      	add	r1, pc
    2396:	f04f 0001 	mov.w	r0, #1
    239a:	4c0a      	ldr	r4, [pc, #40]	; (23c4 <check_elem_end+0x70>)
    239c:	447c      	add	r4, pc
    239e:	47a0      	blx	r4
/home/rahulmahdev/devel/optee/optee_os/lib/libutee/tee_user_mem.c:228
    23a0:	f04f 0300 	mov.w	r3, #0
    23a4:	e001      	b.n	23aa <check_elem_end+0x56>
/home/rahulmahdev/devel/optee/optee_os/lib/libutee/tee_user_mem.c:231
    23a6:	f04f 0301 	mov.w	r3, #1
/home/rahulmahdev/devel/optee/optee_os/lib/libutee/tee_user_mem.c:232
    23aa:	4618      	mov	r0, r3
    23ac:	f107 0714 	add.w	r7, r7, #20
    23b0:	46bd      	mov	sp, r7
    23b2:	e9dd 4700 	ldrd	r4, r7, [sp]
    23b6:	b002      	add	sp, #8
    23b8:	f85d fb04 	ldr.w	pc, [sp], #4
    23bc:	00008db4 	.word	0x00008db4
    23c0:	00008e78 	.word	0x00008e78
    23c4:	fffffe75 	.word	0xfffffe75

000023c8 <check_elem>:
check_elem():
/home/rahulmahdev/devel/optee/optee_os/lib/libutee/tee_user_mem.c:235
    23c8:	f84d 4d0c 	str.w	r4, [sp, #-12]!
    23cc:	e9cd 7e01 	strd	r7, lr, [sp, #4]
    23d0:	b087      	sub	sp, #28
    23d2:	af02      	add	r7, sp, #8
    23d4:	6078      	str	r0, [r7, #4]
    23d6:	4c31      	ldr	r4, [pc, #196]	; (249c <check_elem+0xd4>)
    23d8:	447c      	add	r4, pc
/home/rahulmahdev/devel/optee/optee_os/lib/libutee/tee_user_mem.c:239
    23da:	687b      	ldr	r3, [r7, #4]
    23dc:	2b00      	cmp	r3, #0
    23de:	d102      	bne.n	23e6 <check_elem+0x1e>
/home/rahulmahdev/devel/optee/optee_os/lib/libutee/tee_user_mem.c:240
    23e0:	f04f 0300 	mov.w	r3, #0
    23e4:	e051      	b.n	248a <check_elem+0xc2>
/home/rahulmahdev/devel/optee/optee_os/lib/libutee/tee_user_mem.c:242
    23e6:	687b      	ldr	r3, [r7, #4]
    23e8:	f003 0303 	and.w	r3, r3, #3
    23ec:	2b00      	cmp	r3, #0
    23ee:	d00d      	beq.n	240c <check_elem+0x44>
/home/rahulmahdev/devel/optee/optee_os/lib/libutee/tee_user_mem.c:242 (discriminator 1)
    23f0:	f04f 02f2 	mov.w	r2, #242	; 0xf2
    23f4:	4b2a      	ldr	r3, [pc, #168]	; (24a0 <check_elem+0xd8>)
    23f6:	447b      	add	r3, pc
    23f8:	4619      	mov	r1, r3
    23fa:	4b2a      	ldr	r3, [pc, #168]	; (24a4 <check_elem+0xdc>)
    23fc:	447b      	add	r3, pc
    23fe:	4618      	mov	r0, r3
    2400:	4b29      	ldr	r3, [pc, #164]	; (24a8 <check_elem+0xe0>)
    2402:	58e3      	ldr	r3, [r4, r3]
    2404:	4798      	blx	r3
    2406:	4b29      	ldr	r3, [pc, #164]	; (24ac <check_elem+0xe4>)
    2408:	58e3      	ldr	r3, [r4, r3]
    240a:	4798      	blx	r3
/home/rahulmahdev/devel/optee/optee_os/lib/libutee/tee_user_mem.c:244
    240c:	687b      	ldr	r3, [r7, #4]
    240e:	681b      	ldr	r3, [r3, #0]
    2410:	60fb      	str	r3, [r7, #12]
/home/rahulmahdev/devel/optee/optee_os/lib/libutee/tee_user_mem.c:245
    2412:	68fb      	ldr	r3, [r7, #12]
    2414:	2b00      	cmp	r3, #0
    2416:	d016      	beq.n	2446 <check_elem+0x7e>
/home/rahulmahdev/devel/optee/optee_os/lib/libutee/tee_user_mem.c:245 (discriminator 1)
    2418:	68fb      	ldr	r3, [r7, #12]
    241a:	685b      	ldr	r3, [r3, #4]
    241c:	685b      	ldr	r3, [r3, #4]
    241e:	681a      	ldr	r2, [r3, #0]
    2420:	687b      	ldr	r3, [r7, #4]
    2422:	429a      	cmp	r2, r3
    2424:	d00f      	beq.n	2446 <check_elem+0x7e>
/home/rahulmahdev/devel/optee/optee_os/lib/libutee/tee_user_mem.c:246
    2426:	68fb      	ldr	r3, [r7, #12]
    2428:	9300      	str	r3, [sp, #0]
    242a:	4b21      	ldr	r3, [pc, #132]	; (24b0 <check_elem+0xe8>)
    242c:	447b      	add	r3, pc
    242e:	f04f 02f6 	mov.w	r2, #246	; 0xf6
    2432:	4920      	ldr	r1, [pc, #128]	; (24b4 <check_elem+0xec>)
    2434:	4479      	add	r1, pc
    2436:	f04f 0001 	mov.w	r0, #1
    243a:	4c1f      	ldr	r4, [pc, #124]	; (24b8 <check_elem+0xf0>)
    243c:	447c      	add	r4, pc
    243e:	47a0      	blx	r4
/home/rahulmahdev/devel/optee/optee_os/lib/libutee/tee_user_mem.c:247
    2440:	f04f 0300 	mov.w	r3, #0
    2444:	e021      	b.n	248a <check_elem+0xc2>
/home/rahulmahdev/devel/optee/optee_os/lib/libutee/tee_user_mem.c:250
    2446:	687b      	ldr	r3, [r7, #4]
    2448:	685b      	ldr	r3, [r3, #4]
    244a:	685b      	ldr	r3, [r3, #4]
    244c:	681b      	ldr	r3, [r3, #0]
    244e:	60fb      	str	r3, [r7, #12]
/home/rahulmahdev/devel/optee/optee_os/lib/libutee/tee_user_mem.c:251
    2450:	68fb      	ldr	r3, [r7, #12]
    2452:	2b00      	cmp	r3, #0
    2454:	d014      	beq.n	2480 <check_elem+0xb8>
/home/rahulmahdev/devel/optee/optee_os/lib/libutee/tee_user_mem.c:251 (discriminator 1)
    2456:	68fb      	ldr	r3, [r7, #12]
    2458:	681a      	ldr	r2, [r3, #0]
    245a:	687b      	ldr	r3, [r7, #4]
    245c:	429a      	cmp	r2, r3
    245e:	d00f      	beq.n	2480 <check_elem+0xb8>
/home/rahulmahdev/devel/optee/optee_os/lib/libutee/tee_user_mem.c:252
    2460:	68fb      	ldr	r3, [r7, #12]
    2462:	9300      	str	r3, [sp, #0]
    2464:	4b15      	ldr	r3, [pc, #84]	; (24bc <check_elem+0xf4>)
    2466:	447b      	add	r3, pc
    2468:	f04f 02fc 	mov.w	r2, #252	; 0xfc
    246c:	4914      	ldr	r1, [pc, #80]	; (24c0 <check_elem+0xf8>)
    246e:	4479      	add	r1, pc
    2470:	f04f 0001 	mov.w	r0, #1
    2474:	4c13      	ldr	r4, [pc, #76]	; (24c4 <check_elem+0xfc>)
    2476:	447c      	add	r4, pc
    2478:	47a0      	blx	r4
/home/rahulmahdev/devel/optee/optee_os/lib/libutee/tee_user_mem.c:253
    247a:	f04f 0300 	mov.w	r3, #0
    247e:	e004      	b.n	248a <check_elem+0xc2>
/home/rahulmahdev/devel/optee/optee_os/lib/libutee/tee_user_mem.c:256
    2480:	6878      	ldr	r0, [r7, #4]
    2482:	4b11      	ldr	r3, [pc, #68]	; (24c8 <check_elem+0x100>)
    2484:	447b      	add	r3, pc
    2486:	4798      	blx	r3
    2488:	4603      	mov	r3, r0
/home/rahulmahdev/devel/optee/optee_os/lib/libutee/tee_user_mem.c:257
    248a:	4618      	mov	r0, r3
    248c:	f107 0714 	add.w	r7, r7, #20
    2490:	46bd      	mov	sp, r7
    2492:	e9dd 4700 	ldrd	r4, r7, [sp]
    2496:	b002      	add	sp, #8
    2498:	f85d fb04 	ldr.w	pc, [sp], #4
    249c:	0000a164 	.word	0x0000a164
    24a0:	00008d56 	.word	0x00008d56
    24a4:	00008d6c 	.word	0x00008d6c
    24a8:	000000a4 	.word	0x000000a4
    24ac:	00000174 	.word	0x00000174
    24b0:	00008d58 	.word	0x00008d58
    24b4:	00008de8 	.word	0x00008de8
    24b8:	fffffdd5 	.word	0xfffffdd5
    24bc:	00008d1e 	.word	0x00008d1e
    24c0:	00008dae 	.word	0x00008dae
    24c4:	fffffd9b 	.word	0xfffffd9b
    24c8:	fffffecd 	.word	0xfffffecd

000024cc <is_mem_coherent>:
is_mem_coherent():
/home/rahulmahdev/devel/optee/optee_os/lib/libutee/tee_user_mem.c:261
    24cc:	f84d 4d0c 	str.w	r4, [sp, #-12]!
    24d0:	e9cd 7e01 	strd	r7, lr, [sp, #4]
    24d4:	b083      	sub	sp, #12
    24d6:	af00      	add	r7, sp, #0
    24d8:	4c16      	ldr	r4, [pc, #88]	; (2534 <is_mem_coherent+0x68>)
    24da:	447c      	add	r4, pc
/home/rahulmahdev/devel/optee/optee_os/lib/libutee/tee_user_mem.c:264
    24dc:	4b16      	ldr	r3, [pc, #88]	; (2538 <is_mem_coherent+0x6c>)
    24de:	447b      	add	r3, pc
    24e0:	681b      	ldr	r3, [r3, #0]
    24e2:	607b      	str	r3, [r7, #4]
    24e4:	e017      	b.n	2516 <is_mem_coherent+0x4a>
/home/rahulmahdev/devel/optee/optee_os/lib/libutee/tee_user_mem.c:265
    24e6:	6878      	ldr	r0, [r7, #4]
    24e8:	4b14      	ldr	r3, [pc, #80]	; (253c <is_mem_coherent+0x70>)
    24ea:	447b      	add	r3, pc
    24ec:	4798      	blx	r3
    24ee:	4603      	mov	r3, r0
    24f0:	2b00      	cmp	r3, #0
    24f2:	d10d      	bne.n	2510 <is_mem_coherent+0x44>
/home/rahulmahdev/devel/optee/optee_os/lib/libutee/tee_user_mem.c:266 (discriminator 1)
    24f4:	f44f 7285 	mov.w	r2, #266	; 0x10a
    24f8:	4b11      	ldr	r3, [pc, #68]	; (2540 <is_mem_coherent+0x74>)
    24fa:	447b      	add	r3, pc
    24fc:	4619      	mov	r1, r3
    24fe:	4b11      	ldr	r3, [pc, #68]	; (2544 <is_mem_coherent+0x78>)
    2500:	447b      	add	r3, pc
    2502:	4618      	mov	r0, r3
    2504:	4b10      	ldr	r3, [pc, #64]	; (2548 <is_mem_coherent+0x7c>)
    2506:	58e3      	ldr	r3, [r4, r3]
    2508:	4798      	blx	r3
    250a:	4b10      	ldr	r3, [pc, #64]	; (254c <is_mem_coherent+0x80>)
    250c:	58e3      	ldr	r3, [r4, r3]
    250e:	4798      	blx	r3
/home/rahulmahdev/devel/optee/optee_os/lib/libutee/tee_user_mem.c:264 (discriminator 2)
    2510:	687b      	ldr	r3, [r7, #4]
    2512:	681b      	ldr	r3, [r3, #0]
    2514:	607b      	str	r3, [r7, #4]
/home/rahulmahdev/devel/optee/optee_os/lib/libutee/tee_user_mem.c:264 (discriminator 1)
    2516:	687b      	ldr	r3, [r7, #4]
    2518:	2b00      	cmp	r3, #0
    251a:	d1e4      	bne.n	24e6 <is_mem_coherent+0x1a>
/home/rahulmahdev/devel/optee/optee_os/lib/libutee/tee_user_mem.c:270
    251c:	f04f 0301 	mov.w	r3, #1
/home/rahulmahdev/devel/optee/optee_os/lib/libutee/tee_user_mem.c:271
    2520:	4618      	mov	r0, r3
    2522:	f107 070c 	add.w	r7, r7, #12
    2526:	46bd      	mov	sp, r7
    2528:	e9dd 4700 	ldrd	r4, r7, [sp]
    252c:	b002      	add	sp, #8
    252e:	f85d fb04 	ldr.w	pc, [sp], #4
    2532:	bf00      	nop
    2534:	0000a062 	.word	0x0000a062
    2538:	0000ab9e 	.word	0x0000ab9e
    253c:	fffffedb 	.word	0xfffffedb
    2540:	00008c52 	.word	0x00008c52
    2544:	00008c90 	.word	0x00008c90
    2548:	000000a4 	.word	0x000000a4
    254c:	00000174 	.word	0x00000174

00002550 <tee_user_mem_alloc>:
tee_user_mem_alloc():
/home/rahulmahdev/devel/optee/optee_os/lib/libutee/tee_user_mem.c:293
    2550:	e96d 4504 	strd	r4, r5, [sp, #-16]!
    2554:	e9cd 7e02 	strd	r7, lr, [sp, #8]
    2558:	b088      	sub	sp, #32
    255a:	af02      	add	r7, sp, #8
    255c:	6078      	str	r0, [r7, #4]
    255e:	6039      	str	r1, [r7, #0]
    2560:	4c4c      	ldr	r4, [pc, #304]	; (2694 <tee_user_mem_alloc+0x144>)
    2562:	447c      	add	r4, pc
/home/rahulmahdev/devel/optee/optee_os/lib/libutee/tee_user_mem.c:295
    2564:	f04f 0300 	mov.w	r3, #0
    2568:	617b      	str	r3, [r7, #20]
/home/rahulmahdev/devel/optee/optee_os/lib/libutee/tee_user_mem.c:297
    256a:	f04f 0201 	mov.w	r2, #1
    256e:	687b      	ldr	r3, [r7, #4]
    2570:	4413      	add	r3, r2
/home/rahulmahdev/devel/optee/optee_os/lib/libutee/tee_user_mem.c:296
    2572:	f103 0310 	add.w	r3, r3, #16
    2576:	613b      	str	r3, [r7, #16]
/home/rahulmahdev/devel/optee/optee_os/lib/libutee/tee_user_mem.c:302
    2578:	687b      	ldr	r3, [r7, #4]
    257a:	2b00      	cmp	r3, #0
    257c:	da02      	bge.n	2584 <tee_user_mem_alloc+0x34>
/home/rahulmahdev/devel/optee/optee_os/lib/libutee/tee_user_mem.c:304
    257e:	f04f 0300 	mov.w	r3, #0
    2582:	e07e      	b.n	2682 <tee_user_mem_alloc+0x132>
/home/rahulmahdev/devel/optee/optee_os/lib/libutee/tee_user_mem.c:307
    2584:	687b      	ldr	r3, [r7, #4]
    2586:	2b00      	cmp	r3, #0
    2588:	d103      	bne.n	2592 <tee_user_mem_alloc+0x42>
/home/rahulmahdev/devel/optee/optee_os/lib/libutee/tee_user_mem.c:309
    258a:	4b43      	ldr	r3, [pc, #268]	; (2698 <tee_user_mem_alloc+0x148>)
    258c:	447b      	add	r3, pc
    258e:	681b      	ldr	r3, [r3, #0]
    2590:	e077      	b.n	2682 <tee_user_mem_alloc+0x132>
/home/rahulmahdev/devel/optee/optee_os/lib/libutee/tee_user_mem.c:313
    2592:	683b      	ldr	r3, [r7, #0]
    2594:	2b00      	cmp	r3, #0
    2596:	d015      	beq.n	25c4 <tee_user_mem_alloc+0x74>
    2598:	f1b3 4f00 	cmp.w	r3, #2147483648	; 0x80000000
    259c:	d012      	beq.n	25c4 <tee_user_mem_alloc+0x74>
/home/rahulmahdev/devel/optee/optee_os/lib/libutee/tee_user_mem.c:318
    259e:	683b      	ldr	r3, [r7, #0]
    25a0:	9301      	str	r3, [sp, #4]
    25a2:	4b3e      	ldr	r3, [pc, #248]	; (269c <tee_user_mem_alloc+0x14c>)
    25a4:	447b      	add	r3, pc
    25a6:	9300      	str	r3, [sp, #0]
    25a8:	f04f 0301 	mov.w	r3, #1
    25ac:	f04f 0201 	mov.w	r2, #1
    25b0:	f44f 719f 	mov.w	r1, #318	; 0x13e
    25b4:	483a      	ldr	r0, [pc, #232]	; (26a0 <tee_user_mem_alloc+0x150>)
    25b6:	4478      	add	r0, pc
    25b8:	4d3a      	ldr	r5, [pc, #232]	; (26a4 <tee_user_mem_alloc+0x154>)
    25ba:	5964      	ldr	r4, [r4, r5]
    25bc:	47a0      	blx	r4
/home/rahulmahdev/devel/optee/optee_os/lib/libutee/tee_user_mem.c:320
    25be:	f04f 0300 	mov.w	r3, #0
    25c2:	e05e      	b.n	2682 <tee_user_mem_alloc+0x132>
/home/rahulmahdev/devel/optee/optee_os/lib/libutee/tee_user_mem.c:316
    25c4:	bf00      	nop
/home/rahulmahdev/devel/optee/optee_os/lib/libutee/tee_user_mem.c:323
    25c6:	6938      	ldr	r0, [r7, #16]
    25c8:	4b37      	ldr	r3, [pc, #220]	; (26a8 <tee_user_mem_alloc+0x158>)
    25ca:	58e3      	ldr	r3, [r4, r3]
    25cc:	4798      	blx	r3
    25ce:	60f8      	str	r0, [r7, #12]
/home/rahulmahdev/devel/optee/optee_os/lib/libutee/tee_user_mem.c:324
    25d0:	68fb      	ldr	r3, [r7, #12]
    25d2:	2b00      	cmp	r3, #0
    25d4:	d054      	beq.n	2680 <tee_user_mem_alloc+0x130>
/home/rahulmahdev/devel/optee/optee_os/lib/libutee/tee_user_mem.c:325
    25d6:	68fb      	ldr	r3, [r7, #12]
    25d8:	60bb      	str	r3, [r7, #8]
/home/rahulmahdev/devel/optee/optee_os/lib/libutee/tee_user_mem.c:326
    25da:	68bb      	ldr	r3, [r7, #8]
    25dc:	693a      	ldr	r2, [r7, #16]
    25de:	609a      	str	r2, [r3, #8]
/home/rahulmahdev/devel/optee/optee_os/lib/libutee/tee_user_mem.c:327
    25e0:	68bb      	ldr	r3, [r7, #8]
    25e2:	683a      	ldr	r2, [r7, #0]
    25e4:	60da      	str	r2, [r3, #12]
/home/rahulmahdev/devel/optee/optee_os/lib/libutee/tee_user_mem.c:328
    25e6:	6938      	ldr	r0, [r7, #16]
    25e8:	4b30      	ldr	r3, [pc, #192]	; (26ac <tee_user_mem_alloc+0x15c>)
    25ea:	447b      	add	r3, pc
    25ec:	4798      	blx	r3
/home/rahulmahdev/devel/optee/optee_os/lib/libutee/tee_user_mem.c:331
    25ee:	68bb      	ldr	r3, [r7, #8]
    25f0:	f04f 0200 	mov.w	r2, #0
    25f4:	601a      	str	r2, [r3, #0]
    25f6:	4b2e      	ldr	r3, [pc, #184]	; (26b0 <tee_user_mem_alloc+0x160>)
    25f8:	447b      	add	r3, pc
    25fa:	685a      	ldr	r2, [r3, #4]
    25fc:	68bb      	ldr	r3, [r7, #8]
    25fe:	605a      	str	r2, [r3, #4]
    2600:	4b2c      	ldr	r3, [pc, #176]	; (26b4 <tee_user_mem_alloc+0x164>)
    2602:	447b      	add	r3, pc
    2604:	685b      	ldr	r3, [r3, #4]
    2606:	68ba      	ldr	r2, [r7, #8]
    2608:	601a      	str	r2, [r3, #0]
    260a:	68bb      	ldr	r3, [r7, #8]
    260c:	4a2a      	ldr	r2, [pc, #168]	; (26b8 <tee_user_mem_alloc+0x168>)
    260e:	447a      	add	r2, pc
    2610:	6053      	str	r3, [r2, #4]
/home/rahulmahdev/devel/optee/optee_os/lib/libutee/tee_user_mem.c:335
    2612:	f04f 0201 	mov.w	r2, #1
    2616:	693b      	ldr	r3, [r7, #16]
    2618:	eba3 0302 	sub.w	r3, r3, r2
    261c:	68fa      	ldr	r2, [r7, #12]
    261e:	441a      	add	r2, r3
    2620:	68fb      	ldr	r3, [r7, #12]
    2622:	b2db      	uxtb	r3, r3
    2624:	f083 033a 	eor.w	r3, r3, #58	; 0x3a
    2628:	ea6f 0303 	mvn.w	r3, r3
    262c:	b2db      	uxtb	r3, r3
    262e:	7013      	strb	r3, [r2, #0]
/home/rahulmahdev/devel/optee/optee_os/lib/libutee/tee_user_mem.c:339
    2630:	68bb      	ldr	r3, [r7, #8]
    2632:	9300      	str	r3, [sp, #0]
    2634:	4b21      	ldr	r3, [pc, #132]	; (26bc <tee_user_mem_alloc+0x16c>)
    2636:	447b      	add	r3, pc
    2638:	f240 1253 	movw	r2, #339	; 0x153
    263c:	4920      	ldr	r1, [pc, #128]	; (26c0 <tee_user_mem_alloc+0x170>)
    263e:	4479      	add	r1, pc
    2640:	f04f 0003 	mov.w	r0, #3
    2644:	4d1f      	ldr	r5, [pc, #124]	; (26c4 <tee_user_mem_alloc+0x174>)
    2646:	447d      	add	r5, pc
    2648:	47a8      	blx	r5
/home/rahulmahdev/devel/optee/optee_os/lib/libutee/tee_user_mem.c:341
    264a:	68b8      	ldr	r0, [r7, #8]
    264c:	4b1e      	ldr	r3, [pc, #120]	; (26c8 <tee_user_mem_alloc+0x178>)
    264e:	447b      	add	r3, pc
    2650:	4798      	blx	r3
    2652:	6178      	str	r0, [r7, #20]
/home/rahulmahdev/devel/optee/optee_os/lib/libutee/tee_user_mem.c:343
    2654:	683b      	ldr	r3, [r7, #0]
    2656:	2b00      	cmp	r3, #0
    2658:	d107      	bne.n	266a <tee_user_mem_alloc+0x11a>
/home/rahulmahdev/devel/optee/optee_os/lib/libutee/tee_user_mem.c:344
    265a:	687a      	ldr	r2, [r7, #4]
    265c:	f04f 0100 	mov.w	r1, #0
    2660:	6978      	ldr	r0, [r7, #20]
    2662:	4b1a      	ldr	r3, [pc, #104]	; (26cc <tee_user_mem_alloc+0x17c>)
    2664:	58e3      	ldr	r3, [r4, r3]
    2666:	4798      	blx	r3
    2668:	e00a      	b.n	2680 <tee_user_mem_alloc+0x130>
/home/rahulmahdev/devel/optee/optee_os/lib/libutee/tee_user_mem.c:346
    266a:	683b      	ldr	r3, [r7, #0]
    266c:	f1b3 4f00 	cmp.w	r3, #2147483648	; 0x80000000
    2670:	d106      	bne.n	2680 <tee_user_mem_alloc+0x130>
/home/rahulmahdev/devel/optee/optee_os/lib/libutee/tee_user_mem.c:348
    2672:	687a      	ldr	r2, [r7, #4]
    2674:	f04f 01bb 	mov.w	r1, #187	; 0xbb
    2678:	6978      	ldr	r0, [r7, #20]
    267a:	4b14      	ldr	r3, [pc, #80]	; (26cc <tee_user_mem_alloc+0x17c>)
    267c:	58e3      	ldr	r3, [r4, r3]
    267e:	4798      	blx	r3
/home/rahulmahdev/devel/optee/optee_os/lib/libutee/tee_user_mem.c:353
    2680:	697b      	ldr	r3, [r7, #20]
/home/rahulmahdev/devel/optee/optee_os/lib/libutee/tee_user_mem.c:354
    2682:	4618      	mov	r0, r3
    2684:	f107 0718 	add.w	r7, r7, #24
    2688:	46bd      	mov	sp, r7
    268a:	e9dd 4500 	ldrd	r4, r5, [sp]
    268e:	b002      	add	sp, #8
    2690:	bd80      	pop	{r7, pc}
    2692:	bf00      	nop
    2694:	00009fda 	.word	0x00009fda
    2698:	0000aaec 	.word	0x0000aaec
    269c:	00008bf0 	.word	0x00008bf0
    26a0:	00008c72 	.word	0x00008c72
    26a4:	00000060 	.word	0x00000060
    26a8:	00000048 	.word	0x00000048
    26ac:	fffffca3 	.word	0xfffffca3
    26b0:	0000aa84 	.word	0x0000aa84
    26b4:	0000aa7a 	.word	0x0000aa7a
    26b8:	0000aa6e 	.word	0x0000aa6e
    26bc:	00008b76 	.word	0x00008b76
    26c0:	00008bea 	.word	0x00008bea
    26c4:	fffffbcb 	.word	0xfffffbcb
    26c8:	fffffb0f 	.word	0xfffffb0f
    26cc:	0000011c 	.word	0x0000011c

000026d0 <tee_user_mem_realloc>:
tee_user_mem_realloc():
/home/rahulmahdev/devel/optee/optee_os/lib/libutee/tee_user_mem.c:363
    26d0:	f84d 4d0c 	str.w	r4, [sp, #-12]!
    26d4:	e9cd 7e01 	strd	r7, lr, [sp, #4]
    26d8:	b089      	sub	sp, #36	; 0x24
    26da:	af00      	add	r7, sp, #0
    26dc:	6078      	str	r0, [r7, #4]
    26de:	6039      	str	r1, [r7, #0]
    26e0:	4c2c      	ldr	r4, [pc, #176]	; (2794 <tee_user_mem_realloc+0xc4>)
    26e2:	447c      	add	r4, pc
/home/rahulmahdev/devel/optee/optee_os/lib/libutee/tee_user_mem.c:370
    26e4:	683b      	ldr	r3, [r7, #0]
    26e6:	2b00      	cmp	r3, #0
    26e8:	da02      	bge.n	26f0 <tee_user_mem_realloc+0x20>
/home/rahulmahdev/devel/optee/optee_os/lib/libutee/tee_user_mem.c:372
    26ea:	f04f 0300 	mov.w	r3, #0
    26ee:	e048      	b.n	2782 <tee_user_mem_realloc+0xb2>
/home/rahulmahdev/devel/optee/optee_os/lib/libutee/tee_user_mem.c:380
    26f0:	687b      	ldr	r3, [r7, #4]
    26f2:	2b00      	cmp	r3, #0
    26f4:	d00c      	beq.n	2710 <tee_user_mem_realloc+0x40>
/home/rahulmahdev/devel/optee/optee_os/lib/libutee/tee_user_mem.c:380 (discriminator 1)
    26f6:	4b28      	ldr	r3, [pc, #160]	; (2798 <tee_user_mem_realloc+0xc8>)
    26f8:	447b      	add	r3, pc
    26fa:	681b      	ldr	r3, [r3, #0]
    26fc:	687a      	ldr	r2, [r7, #4]
    26fe:	429a      	cmp	r2, r3
    2700:	d006      	beq.n	2710 <tee_user_mem_realloc+0x40>
/home/rahulmahdev/devel/optee/optee_os/lib/libutee/tee_user_mem.c:380 (discriminator 2)
    2702:	6878      	ldr	r0, [r7, #4]
    2704:	4b25      	ldr	r3, [pc, #148]	; (279c <tee_user_mem_realloc+0xcc>)
    2706:	447b      	add	r3, pc
    2708:	4798      	blx	r3
    270a:	4603      	mov	r3, r0
    270c:	2b00      	cmp	r3, #0
    270e:	d109      	bne.n	2724 <tee_user_mem_realloc+0x54>
/home/rahulmahdev/devel/optee/optee_os/lib/libutee/tee_user_mem.c:381
    2710:	f04f 0300 	mov.w	r3, #0
    2714:	4619      	mov	r1, r3
    2716:	6838      	ldr	r0, [r7, #0]
    2718:	4b21      	ldr	r3, [pc, #132]	; (27a0 <tee_user_mem_realloc+0xd0>)
    271a:	447b      	add	r3, pc
    271c:	4798      	blx	r3
    271e:	6178      	str	r0, [r7, #20]
/home/rahulmahdev/devel/optee/optee_os/lib/libutee/tee_user_mem.c:383
    2720:	697b      	ldr	r3, [r7, #20]
    2722:	e02e      	b.n	2782 <tee_user_mem_realloc+0xb2>
/home/rahulmahdev/devel/optee/optee_os/lib/libutee/tee_user_mem.c:390
    2724:	6878      	ldr	r0, [r7, #4]
    2726:	4b1f      	ldr	r3, [pc, #124]	; (27a4 <tee_user_mem_realloc+0xd4>)
    2728:	447b      	add	r3, pc
    272a:	4798      	blx	r3
    272c:	61f8      	str	r0, [r7, #28]
/home/rahulmahdev/devel/optee/optee_os/lib/libutee/tee_user_mem.c:391
    272e:	69f8      	ldr	r0, [r7, #28]
    2730:	4b1d      	ldr	r3, [pc, #116]	; (27a8 <tee_user_mem_realloc+0xd8>)
    2732:	447b      	add	r3, pc
    2734:	4798      	blx	r3
    2736:	61b8      	str	r0, [r7, #24]
/home/rahulmahdev/devel/optee/optee_os/lib/libutee/tee_user_mem.c:392
    2738:	683a      	ldr	r2, [r7, #0]
    273a:	69bb      	ldr	r3, [r7, #24]
    273c:	429a      	cmp	r2, r3
    273e:	d101      	bne.n	2744 <tee_user_mem_realloc+0x74>
/home/rahulmahdev/devel/optee/optee_os/lib/libutee/tee_user_mem.c:394
    2740:	687b      	ldr	r3, [r7, #4]
    2742:	e01e      	b.n	2782 <tee_user_mem_realloc+0xb2>
/home/rahulmahdev/devel/optee/optee_os/lib/libutee/tee_user_mem.c:402
    2744:	69fb      	ldr	r3, [r7, #28]
    2746:	68db      	ldr	r3, [r3, #12]
    2748:	4619      	mov	r1, r3
    274a:	6838      	ldr	r0, [r7, #0]
    274c:	4b17      	ldr	r3, [pc, #92]	; (27ac <tee_user_mem_realloc+0xdc>)
    274e:	447b      	add	r3, pc
    2750:	4798      	blx	r3
    2752:	6178      	str	r0, [r7, #20]
/home/rahulmahdev/devel/optee/optee_os/lib/libutee/tee_user_mem.c:403
    2754:	697b      	ldr	r3, [r7, #20]
    2756:	2b00      	cmp	r3, #0
    2758:	d012      	beq.n	2780 <tee_user_mem_realloc+0xb0>
/home/rahulmahdev/devel/optee/optee_os/lib/libutee/tee_user_mem.c:404
    275a:	683b      	ldr	r3, [r7, #0]
    275c:	613b      	str	r3, [r7, #16]
    275e:	69bb      	ldr	r3, [r7, #24]
    2760:	60fb      	str	r3, [r7, #12]
    2762:	68fa      	ldr	r2, [r7, #12]
    2764:	693b      	ldr	r3, [r7, #16]
    2766:	4293      	cmp	r3, r2
    2768:	bf28      	it	cs
    276a:	4613      	movcs	r3, r2
    276c:	461a      	mov	r2, r3
    276e:	6879      	ldr	r1, [r7, #4]
    2770:	6978      	ldr	r0, [r7, #20]
    2772:	4b0f      	ldr	r3, [pc, #60]	; (27b0 <tee_user_mem_realloc+0xe0>)
    2774:	58e3      	ldr	r3, [r4, r3]
    2776:	4798      	blx	r3
/home/rahulmahdev/devel/optee/optee_os/lib/libutee/tee_user_mem.c:407
    2778:	6878      	ldr	r0, [r7, #4]
    277a:	4b0e      	ldr	r3, [pc, #56]	; (27b4 <tee_user_mem_realloc+0xe4>)
    277c:	447b      	add	r3, pc
    277e:	4798      	blx	r3
/home/rahulmahdev/devel/optee/optee_os/lib/libutee/tee_user_mem.c:411
    2780:	697b      	ldr	r3, [r7, #20]
/home/rahulmahdev/devel/optee/optee_os/lib/libutee/tee_user_mem.c:412
    2782:	4618      	mov	r0, r3
    2784:	f107 0724 	add.w	r7, r7, #36	; 0x24
    2788:	46bd      	mov	sp, r7
    278a:	e9dd 4700 	ldrd	r4, r7, [sp]
    278e:	b002      	add	sp, #8
    2790:	f85d fb04 	ldr.w	pc, [sp], #4
    2794:	00009e5a 	.word	0x00009e5a
    2798:	0000a980 	.word	0x0000a980
    279c:	fffffabf 	.word	0xfffffabf
    27a0:	fffffe33 	.word	0xfffffe33
    27a4:	fffffa7d 	.word	0xfffffa7d
    27a8:	fffffa4b 	.word	0xfffffa4b
    27ac:	fffffdff 	.word	0xfffffdff
    27b0:	00000064 	.word	0x00000064
    27b4:	00000039 	.word	0x00000039

000027b8 <tee_user_mem_free>:
tee_user_mem_free():
/home/rahulmahdev/devel/optee/optee_os/lib/libutee/tee_user_mem.c:419
    27b8:	e96d 4504 	strd	r4, r5, [sp, #-16]!
    27bc:	e9cd 7e02 	strd	r7, lr, [sp, #8]
    27c0:	b086      	sub	sp, #24
    27c2:	af02      	add	r7, sp, #8
    27c4:	6078      	str	r0, [r7, #4]
    27c6:	4c3d      	ldr	r4, [pc, #244]	; (28bc <tee_user_mem_free+0x104>)
    27c8:	447c      	add	r4, pc
/home/rahulmahdev/devel/optee/optee_os/lib/libutee/tee_user_mem.c:426
    27ca:	687b      	ldr	r3, [r7, #4]
    27cc:	2b00      	cmp	r3, #0
    27ce:	d005      	beq.n	27dc <tee_user_mem_free+0x24>
/home/rahulmahdev/devel/optee/optee_os/lib/libutee/tee_user_mem.c:426 (discriminator 1)
    27d0:	4b3b      	ldr	r3, [pc, #236]	; (28c0 <tee_user_mem_free+0x108>)
    27d2:	447b      	add	r3, pc
    27d4:	681b      	ldr	r3, [r3, #0]
    27d6:	687a      	ldr	r2, [r7, #4]
    27d8:	429a      	cmp	r2, r3
    27da:	d100      	bne.n	27de <tee_user_mem_free+0x26>
/home/rahulmahdev/devel/optee/optee_os/lib/libutee/tee_user_mem.c:427
    27dc:	e067      	b.n	28ae <tee_user_mem_free+0xf6>
/home/rahulmahdev/devel/optee/optee_os/lib/libutee/tee_user_mem.c:430
    27de:	6878      	ldr	r0, [r7, #4]
    27e0:	4b38      	ldr	r3, [pc, #224]	; (28c4 <tee_user_mem_free+0x10c>)
    27e2:	447b      	add	r3, pc
    27e4:	4798      	blx	r3
    27e6:	4603      	mov	r3, r0
    27e8:	2b00      	cmp	r3, #0
    27ea:	d110      	bne.n	280e <tee_user_mem_free+0x56>
/home/rahulmahdev/devel/optee/optee_os/lib/libutee/tee_user_mem.c:431
    27ec:	687b      	ldr	r3, [r7, #4]
    27ee:	9301      	str	r3, [sp, #4]
    27f0:	4b35      	ldr	r3, [pc, #212]	; (28c8 <tee_user_mem_free+0x110>)
    27f2:	447b      	add	r3, pc
    27f4:	9300      	str	r3, [sp, #0]
    27f6:	f04f 0301 	mov.w	r3, #1
    27fa:	f04f 0201 	mov.w	r2, #1
    27fe:	f240 11af 	movw	r1, #431	; 0x1af
    2802:	4832      	ldr	r0, [pc, #200]	; (28cc <tee_user_mem_free+0x114>)
    2804:	4478      	add	r0, pc
    2806:	4d32      	ldr	r5, [pc, #200]	; (28d0 <tee_user_mem_free+0x118>)
    2808:	5964      	ldr	r4, [r4, r5]
    280a:	47a0      	blx	r4
/home/rahulmahdev/devel/optee/optee_os/lib/libutee/tee_user_mem.c:432
    280c:	e04f      	b.n	28ae <tee_user_mem_free+0xf6>
/home/rahulmahdev/devel/optee/optee_os/lib/libutee/tee_user_mem.c:435
    280e:	6878      	ldr	r0, [r7, #4]
    2810:	4b30      	ldr	r3, [pc, #192]	; (28d4 <tee_user_mem_free+0x11c>)
    2812:	447b      	add	r3, pc
    2814:	4798      	blx	r3
    2816:	60f8      	str	r0, [r7, #12]
/home/rahulmahdev/devel/optee/optee_os/lib/libutee/tee_user_mem.c:436
    2818:	68fb      	ldr	r3, [r7, #12]
    281a:	60bb      	str	r3, [r7, #8]
/home/rahulmahdev/devel/optee/optee_os/lib/libutee/tee_user_mem.c:438
    281c:	68bb      	ldr	r3, [r7, #8]
    281e:	9300      	str	r3, [sp, #0]
    2820:	4b2d      	ldr	r3, [pc, #180]	; (28d8 <tee_user_mem_free+0x120>)
    2822:	447b      	add	r3, pc
    2824:	f44f 72db 	mov.w	r2, #438	; 0x1b6
    2828:	492c      	ldr	r1, [pc, #176]	; (28dc <tee_user_mem_free+0x124>)
    282a:	4479      	add	r1, pc
    282c:	f04f 0003 	mov.w	r0, #3
    2830:	4d2b      	ldr	r5, [pc, #172]	; (28e0 <tee_user_mem_free+0x128>)
    2832:	447d      	add	r5, pc
    2834:	47a8      	blx	r5
/home/rahulmahdev/devel/optee/optee_os/lib/libutee/tee_user_mem.c:441
    2836:	68b8      	ldr	r0, [r7, #8]
    2838:	4b2a      	ldr	r3, [pc, #168]	; (28e4 <tee_user_mem_free+0x12c>)
    283a:	447b      	add	r3, pc
    283c:	4798      	blx	r3
    283e:	4603      	mov	r3, r0
    2840:	2b00      	cmp	r3, #0
    2842:	d10d      	bne.n	2860 <tee_user_mem_free+0xa8>
/home/rahulmahdev/devel/optee/optee_os/lib/libutee/tee_user_mem.c:441 (discriminator 1)
    2844:	f240 12b9 	movw	r2, #441	; 0x1b9
    2848:	4b27      	ldr	r3, [pc, #156]	; (28e8 <tee_user_mem_free+0x130>)
    284a:	447b      	add	r3, pc
    284c:	4619      	mov	r1, r3
    284e:	4b27      	ldr	r3, [pc, #156]	; (28ec <tee_user_mem_free+0x134>)
    2850:	447b      	add	r3, pc
    2852:	4618      	mov	r0, r3
    2854:	4b26      	ldr	r3, [pc, #152]	; (28f0 <tee_user_mem_free+0x138>)
    2856:	58e3      	ldr	r3, [r4, r3]
    2858:	4798      	blx	r3
    285a:	4b26      	ldr	r3, [pc, #152]	; (28f4 <tee_user_mem_free+0x13c>)
    285c:	58e3      	ldr	r3, [r4, r3]
    285e:	4798      	blx	r3
/home/rahulmahdev/devel/optee/optee_os/lib/libutee/tee_user_mem.c:444
    2860:	68bb      	ldr	r3, [r7, #8]
    2862:	681b      	ldr	r3, [r3, #0]
    2864:	2b00      	cmp	r3, #0
    2866:	d005      	beq.n	2874 <tee_user_mem_free+0xbc>
/home/rahulmahdev/devel/optee/optee_os/lib/libutee/tee_user_mem.c:444 (discriminator 1)
    2868:	68bb      	ldr	r3, [r7, #8]
    286a:	681b      	ldr	r3, [r3, #0]
    286c:	68ba      	ldr	r2, [r7, #8]
    286e:	6852      	ldr	r2, [r2, #4]
    2870:	605a      	str	r2, [r3, #4]
    2872:	e004      	b.n	287e <tee_user_mem_free+0xc6>
/home/rahulmahdev/devel/optee/optee_os/lib/libutee/tee_user_mem.c:444 (discriminator 2)
    2874:	68bb      	ldr	r3, [r7, #8]
    2876:	685b      	ldr	r3, [r3, #4]
    2878:	4a1f      	ldr	r2, [pc, #124]	; (28f8 <tee_user_mem_free+0x140>)
    287a:	447a      	add	r2, pc
    287c:	6053      	str	r3, [r2, #4]
/home/rahulmahdev/devel/optee/optee_os/lib/libutee/tee_user_mem.c:444 (discriminator 4)
    287e:	68bb      	ldr	r3, [r7, #8]
    2880:	685b      	ldr	r3, [r3, #4]
    2882:	68ba      	ldr	r2, [r7, #8]
    2884:	6812      	ldr	r2, [r2, #0]
    2886:	601a      	str	r2, [r3, #0]
/home/rahulmahdev/devel/optee/optee_os/lib/libutee/tee_user_mem.c:446 (discriminator 4)
    2888:	68bb      	ldr	r3, [r7, #8]
    288a:	689b      	ldr	r3, [r3, #8]
    288c:	4618      	mov	r0, r3
    288e:	4b1b      	ldr	r3, [pc, #108]	; (28fc <tee_user_mem_free+0x144>)
    2890:	447b      	add	r3, pc
    2892:	4798      	blx	r3
/home/rahulmahdev/devel/optee/optee_os/lib/libutee/tee_user_mem.c:455 (discriminator 4)
    2894:	68bb      	ldr	r3, [r7, #8]
    2896:	689b      	ldr	r3, [r3, #8]
    2898:	461a      	mov	r2, r3
    289a:	f04f 01aa 	mov.w	r1, #170	; 0xaa
    289e:	68f8      	ldr	r0, [r7, #12]
    28a0:	4b17      	ldr	r3, [pc, #92]	; (2900 <tee_user_mem_free+0x148>)
    28a2:	58e3      	ldr	r3, [r4, r3]
    28a4:	4798      	blx	r3
/home/rahulmahdev/devel/optee/optee_os/lib/libutee/tee_user_mem.c:458 (discriminator 4)
    28a6:	68f8      	ldr	r0, [r7, #12]
    28a8:	4b16      	ldr	r3, [pc, #88]	; (2904 <tee_user_mem_free+0x14c>)
    28aa:	58e3      	ldr	r3, [r4, r3]
    28ac:	4798      	blx	r3
/home/rahulmahdev/devel/optee/optee_os/lib/libutee/tee_user_mem.c:461
    28ae:	f107 0710 	add.w	r7, r7, #16
    28b2:	46bd      	mov	sp, r7
    28b4:	e9dd 4500 	ldrd	r4, r5, [sp]
    28b8:	b002      	add	sp, #8
    28ba:	bd80      	pop	{r7, pc}
    28bc:	00009d74 	.word	0x00009d74
    28c0:	0000a8a6 	.word	0x0000a8a6
    28c4:	fffff9e3 	.word	0xfffff9e3
    28c8:	000089c6 	.word	0x000089c6
    28cc:	00008a38 	.word	0x00008a38
    28d0:	00000060 	.word	0x00000060
    28d4:	fffff993 	.word	0xfffff993
    28d8:	000089b2 	.word	0x000089b2
    28dc:	00008a12 	.word	0x00008a12
    28e0:	fffff9df 	.word	0xfffff9df
    28e4:	fffffb8b 	.word	0xfffffb8b
    28e8:	00008902 	.word	0x00008902
    28ec:	0000898c 	.word	0x0000898c
    28f0:	000000a4 	.word	0x000000a4
    28f4:	00000174 	.word	0x00000174
    28f8:	0000a802 	.word	0x0000a802
    28fc:	fffffa5d 	.word	0xfffffa5d
    2900:	0000011c 	.word	0x0000011c
    2904:	000001a8 	.word	0x000001a8

00002908 <tee_user_mem_mark_heap>:
tee_user_mem_mark_heap():
/home/rahulmahdev/devel/optee/optee_os/lib/libutee/tee_user_mem.c:468
    2908:	f84d 7d04 	str.w	r7, [sp, #-4]!
    290c:	af00      	add	r7, sp, #0
/home/rahulmahdev/devel/optee/optee_os/lib/libutee/tee_user_mem.c:471
    290e:	4b05      	ldr	r3, [pc, #20]	; (2924 <tee_user_mem_mark_heap+0x1c>)
    2910:	447b      	add	r3, pc
    2912:	461a      	mov	r2, r3
    2914:	f04f 0300 	mov.w	r3, #0
    2918:	6013      	str	r3, [r2, #0]
/home/rahulmahdev/devel/optee/optee_os/lib/libutee/tee_user_mem.c:473
    291a:	46bd      	mov	sp, r7
    291c:	f85d 7b04 	ldr.w	r7, [sp], #4
    2920:	4770      	bx	lr
    2922:	bf00      	nop
    2924:	00014294 	.word	0x00014294

00002928 <tee_user_mem_check_heap>:
tee_user_mem_check_heap():
/home/rahulmahdev/devel/optee/optee_os/lib/libutee/tee_user_mem.c:481
    2928:	e96d 4504 	strd	r4, r5, [sp, #-16]!
    292c:	e9cd 7e02 	strd	r7, lr, [sp, #8]
    2930:	b084      	sub	sp, #16
    2932:	af02      	add	r7, sp, #8
    2934:	4d19      	ldr	r5, [pc, #100]	; (299c <tee_user_mem_check_heap+0x74>)
    2936:	447d      	add	r5, pc
/home/rahulmahdev/devel/optee/optee_os/lib/libutee/tee_user_mem.c:482
    2938:	f04f 0300 	mov.w	r3, #0
    293c:	607b      	str	r3, [r7, #4]
/home/rahulmahdev/devel/optee/optee_os/lib/libutee/tee_user_mem.c:485
    293e:	4b18      	ldr	r3, [pc, #96]	; (29a0 <tee_user_mem_check_heap+0x78>)
    2940:	447b      	add	r3, pc
    2942:	681b      	ldr	r3, [r3, #0]
    2944:	2b00      	cmp	r3, #0
    2946:	d015      	beq.n	2974 <tee_user_mem_check_heap+0x4c>
/home/rahulmahdev/devel/optee/optee_os/lib/libutee/tee_user_mem.c:486
    2948:	4b16      	ldr	r3, [pc, #88]	; (29a4 <tee_user_mem_check_heap+0x7c>)
    294a:	447b      	add	r3, pc
    294c:	681b      	ldr	r3, [r3, #0]
    294e:	9301      	str	r3, [sp, #4]
    2950:	4b15      	ldr	r3, [pc, #84]	; (29a8 <tee_user_mem_check_heap+0x80>)
    2952:	447b      	add	r3, pc
    2954:	9300      	str	r3, [sp, #0]
    2956:	f04f 0301 	mov.w	r3, #1
    295a:	f04f 0201 	mov.w	r2, #1
    295e:	f44f 71f3 	mov.w	r1, #486	; 0x1e6
    2962:	4812      	ldr	r0, [pc, #72]	; (29ac <tee_user_mem_check_heap+0x84>)
    2964:	4478      	add	r0, pc
    2966:	4c12      	ldr	r4, [pc, #72]	; (29b0 <tee_user_mem_check_heap+0x88>)
    2968:	592c      	ldr	r4, [r5, r4]
    296a:	47a0      	blx	r4
/home/rahulmahdev/devel/optee/optee_os/lib/libutee/tee_user_mem.c:488
    296c:	4b11      	ldr	r3, [pc, #68]	; (29b4 <tee_user_mem_check_heap+0x8c>)
    296e:	447b      	add	r3, pc
    2970:	681b      	ldr	r3, [r3, #0]
    2972:	e00a      	b.n	298a <tee_user_mem_check_heap+0x62>
/home/rahulmahdev/devel/optee/optee_os/lib/libutee/tee_user_mem.c:491
    2974:	4b10      	ldr	r3, [pc, #64]	; (29b8 <tee_user_mem_check_heap+0x90>)
    2976:	447b      	add	r3, pc
    2978:	4798      	blx	r3
    297a:	4603      	mov	r3, r0
